

Microchip MPLAB XC8 Assembler V2.20 build 20200408173844 
                                                                                               Wed Jan 20 14:14:01 2021

Microchip MPLAB XC8 C Compiler v2.20 (Free license) build 20200408173844 Og1 
     1                           	processor	18F57Q84
     2                           	fnconf	rparam,??,?,0
     3                           	pagewidth 120
     4                           	opt	flic
     5                           	psect	idataCOMRAM,global,class=CODE,delta=1,noexec
     6                           	psect	idataBANK5,global,class=CODE,delta=1,noexec
     7                           	psect	smallconst,global,reloc=2,class=SMALLCONST,delta=1,noexec
     8                           	psect	nvCOMRAM,global,class=COMRAM,space=1,delta=1,lowdata,noexec
     9                           	psect	cinit,global,reloc=2,class=CODE,delta=1
    10                           	psect	bssCOMRAM,global,class=COMRAM,space=1,delta=1,lowdata,noexec
    11                           	psect	dataCOMRAM,global,class=COMRAM,space=1,delta=1,lowdata,noexec
    12                           	psect	dataBANK5,global,class=BANK5,space=1,delta=1,lowdata,noexec
    13                           	psect	cstackBANK5,global,class=BANK5,space=1,delta=1,lowdata,noexec
    14                           	psect	cstackCOMRAM,global,class=COMRAM,space=1,delta=1,lowdata,noexec
    15                           	psect	text0,global,reloc=2,class=CODE,delta=1
    16                           	psect	text1,global,reloc=2,class=CODE,delta=1
    17                           	psect	text2,global,reloc=2,class=CODE,delta=1
    18                           	psect	text3,global,reloc=2,class=CODE,delta=1
    19                           	psect	text4,global,reloc=2,class=CODE,delta=1
    20                           	psect	text5,global,reloc=2,class=CODE,delta=1
    21                           	psect	text6,global,reloc=2,class=CODE,delta=1
    22                           	psect	text7,global,reloc=2,class=CODE,delta=1
    23                           	psect	text8,global,reloc=2,class=CODE,delta=1
    24                           	psect	text9,global,reloc=2,class=CODE,delta=1
    25                           	psect	text10,global,reloc=2,class=CODE,delta=1
    26                           	psect	text11,global,reloc=2,class=CODE,delta=1
    27                           	psect	text12,global,reloc=2,class=CODE,delta=1
    28                           	psect	text13,global,reloc=2,class=CODE,delta=1
    29                           	psect	text14,global,reloc=2,class=CODE,delta=1
    30                           	psect	text15,global,reloc=2,class=CODE,delta=1
    31                           	psect	text16,global,reloc=2,class=CODE,delta=1
    32                           	psect	text17,global,reloc=2,class=CODE,delta=1
    33                           	psect	text18,global,reloc=2,class=CODE,delta=1
    34                           	psect	text19,global,reloc=2,class=CODE,delta=1
    35                           	psect	text20,global,reloc=2,class=CODE,delta=1
    36                           	psect	text21,global,reloc=2,class=CODE,delta=1
    37                           	psect	text22,global,reloc=2,class=CODE,delta=1
    38                           	psect	text23,global,reloc=2,class=CODE,delta=1
    39                           	psect	text24,global,reloc=2,class=CODE,delta=1
    40                           	psect	text25,global,reloc=2,class=CODE,delta=1
    41                           	psect	text26,global,reloc=2,class=CODE,delta=1
    42                           	psect	text27,global,reloc=2,class=CODE,delta=1
    43                           	psect	text28,global,reloc=2,class=CODE,delta=1
    44                           	psect	text29,global,reloc=2,class=CODE,delta=1
    45                           	psect	text30,global,reloc=2,class=CODE,delta=1
    46                           	psect	text31,global,reloc=2,class=CODE,delta=1
    47                           	psect	text32,global,reloc=2,class=CODE,delta=1
    48                           	psect	text33,global,reloc=2,class=CODE,delta=1,group=2
    49                           	psect	text34,global,reloc=2,class=CODE,delta=1
    50                           	psect	text35,global,reloc=2,class=CODE,delta=1
    51                           	psect	ivt0x8,global,reloc=2,class=CODE,delta=1,noexec,keep,optim=
    52                           	psect	intsave_regs,global,class=BIGRAM,space=1,delta=1,noexec
    53                           	psect	text36,global,reloc=2,class=CODE,delta=1
    54                           	psect	rparam,global,class=COMRAM,space=1,delta=1,noexec
    55                           	psect	idloc,global,abs,ovrld,class=IDLOC,space=5,delta=1,noexec
    56                           	psect	config,global,abs,ovrld,class=CONFIG,space=4,delta=1,noexec
    57  0000                     
    58                           ; Version 2.30
    59                           ; Generated 20/08/2020 GMT
    60                           ; 
    61                           ; Copyright © 2020, Microchip Technology Inc. and its subsidiaries ("Microchip")
    62                           ; All rights reserved.
    63                           ; 
    64                           ; This software is developed by Microchip Technology Inc. and its subsidiaries ("Microch
      +                          ip").
    65                           ; 
    66                           ; Redistribution and use in source and binary forms, with or without modification, are
    67                           ; permitted provided that the following conditions are met:
    68                           ; 
    69                           ;     1. Redistributions of source code must retain the above copyright notice, this lis
      +                          t of
    70                           ;        conditions and the following disclaimer.
    71                           ; 
    72                           ;     2. Redistributions in binary form must reproduce the above copyright notice, this 
      +                          list
    73                           ;        of conditions and the following disclaimer in the documentation and/or other
    74                           ;        materials provided with the distribution. Publication is not required when
    75                           ;        this file is used in an embedded application.
    76                           ; 
    77                           ;     3. Microchip's name may not be used to endorse or promote products derived from th
      +                          is
    78                           ;        software without specific prior written permission.
    79                           ; 
    80                           ; THIS SOFTWARE IS PROVIDED BY MICROCHIP "AS IS" AND ANY EXPRESS OR IMPLIED WARRANTIES,
    81                           ; INCLUDING, BUT NOT LIMITED TO, THE IMPLIED WARRANTIES OF MERCHANTABILITY AND FITNESS F
      +                          OR
    82                           ; PURPOSE ARE DISCLAIMED.  IN NO EVENT SHALL MICROCHIP BE LIABLE FOR ANY DIRECT, INDIREC
      +                          T,
    83                           ; INCIDENTAL, SPECIAL, EXEMPLARY, OR CONSEQUENTIAL DAMAGES (INCLUDING BUT NOT LIMITED TO
    84                           ; PROCUREMENT OF SUBSTITUTE GOODS OR SERVICES; LOSS OF USE, DATA OR PROFITS; OR BUSINESS
    85                           ; INTERRUPTION) HOWSOEVER CAUSED AND ON ANY THEORY OF LIABILITY, WHETHER IN CONTRACT, ST
      +                          RICT
    86                           ; LIABILITY, OR TORT (INCLUDING NEGLIGENCE OR OTHERWISE) ARISING IN ANY WAY OUT OF THE U
      +                          SE OF
    87                           ; THIS SOFTWARE, EVEN IF ADVISED OF THE POSSIBILITY OF SUCH DAMAGE.
    88                           ; 
    89                           ; 
    90                           ; Code-generator required, PIC18F57Q84 Definitions
    91                           ; 
    92                           ; SFR Addresses
    93  0000                     
    94                           	psect	idataCOMRAM
    95  004872                     __pidataCOMRAM:
    96                           	callstack 0
    97                           
    98                           ;initializer for TU16A_DefaultInterruptHandler@F23391
    99  004872  00                 	db	0
   100  004873  11                 	db	17
   101  004874  22                 	db	34
   102  004875  33                 	db	51
   103  004876  44                 	db	68
   104  004877  55                 	db	85
   105  004878  66                 	db	102
   106  004879  77                 	db	119
   107                           
   108                           	psect	idataBANK5
   109  00487E                     __pidataBANK5:
   110                           	callstack 0
   111                           
   112                           ;initializer for _rxFifos
   113  00487E  01                 	db	1
   114  00487F  00                 	db	0
   115                           
   116                           	psect	smallconst
   117  003800                     __psmallconst:
   118                           	callstack 0
   119  003800  00                 	db	0
   120  003801                     _DLC_BYTES:
   121                           	callstack 0
   122  003801  00                 	db	0
   123  003802  01                 	db	1
   124  003803  02                 	db	2
   125  003804  03                 	db	3
   126  003805  04                 	db	4
   127  003806  05                 	db	5
   128  003807  06                 	db	6
   129  003808  07                 	db	7
   130  003809  08                 	db	8
   131  00380A  0C                 	db	12
   132  00380B  10                 	db	16
   133  00380C  14                 	db	20
   134  00380D  18                 	db	24
   135  00380E  20                 	db	32
   136  00380F  30                 	db	48
   137  003810  40                 	db	64
   138  003811                     __end_of_DLC_BYTES:
   139                           	callstack 0
   140  003811  50                 	db	80
   141  003812  01                 	db	1
   142  003813                     __end_of_FIFO:
   143                           	callstack 0
   144  003813  00                 	db	0	; dummy byte at the end
   145  0000                     
   146                           	psect	nvCOMRAM
   147  000559                     __pnvCOMRAM:
   148                           	callstack 0
   149  000559                     _TU16A_InterruptHandler:
   150                           	callstack 0
   151  000559                     	ds	3
   152  0000                     _PMD8	set	104
   153  0000                     _PMD7	set	103
   154  0000                     _PMD6	set	102
   155  0000                     _PMD5	set	101
   156  0000                     _PMD4	set	100
   157  0000                     _PMD3	set	99
   158  0000                     _PMD2	set	98
   159  0000                     _PMD1	set	97
   160  0000                     _PMD0	set	96
   161  0000                     _OSCTUNE	set	176
   162  0000                     _OSCFRQ	set	177
   163  0000                     _OSCEN	set	179
   164  0000                     _OSCCON3	set	175
   165  0000                     _OSCCON1	set	173
   166  0000                     _PLLR	set	1424
   167  0000                     _C1FIFOBA	set	332
   168  0000                     _C1FIFOSTA1Lbits	set	352
   169  0000                     _C1INTTbits	set	287
   170  0000                     _C1TRECUbits	set	310
   171  0000                     _C1CONUbits	set	258
   172  0000                     _C1INTHbits	set	285
   173  0000                     _C1CONTbits	set	259
   174  0000                     _C1CONU	set	258
   175  0000                     _C1CONH	set	257
   176  0000                     _C1CONL	set	256
   177  0000                     _C1CONHbits	set	257
   178  0000                     _C1TDCU	set	270
   179  0000                     _C1TDCH	set	269
   180  0000                     _C1DBTCFGT	set	267
   181  0000                     _C1DBTCFGU	set	266
   182  0000                     _C1DBTCFGH	set	265
   183  0000                     _C1DBTCFGL	set	264
   184  0000                     _C1NBTCFGT	set	263
   185  0000                     _C1NBTCFGU	set	262
   186  0000                     _C1NBTCFGH	set	261
   187  0000                     _C1NBTCFGL	set	260
   188  0000                     _C1TXQCONT	set	339
   189  0000                     _C1TXQCONU	set	338
   190  0000                     _C1TXQCONH	set	337
   191  0000                     _C1FLTCON0L	set	384
   192  0000                     _C1MASK0T	set	403
   193  0000                     _C1MASK0U	set	402
   194  0000                     _C1MASK0H	set	401
   195  0000                     _C1MASK0L	set	400
   196  0000                     _C1FLTOBJ0T	set	399
   197  0000                     _C1FLTOBJ0U	set	398
   198  0000                     _C1FLTOBJ0H	set	397
   199  0000                     _C1FLTOBJ0L	set	396
   200  0000                     _C1INTUbits	set	286
   201  0000                     _C1FIFOCON1T	set	351
   202  0000                     _C1FIFOCON1U	set	350
   203  0000                     _C1FIFOCON1H	set	349
   204  0000                     _C1FIFOCON1L	set	348
   205  0000                     _C1TXQCONL	set	336
   206  0000                     _CANRXPPS	set	573
   207  0000                     _RB0PPS	set	521
   208  0000                     _TU16ACRL	set	907
   209  0000                     _TU16ACRH	set	908
   210  0000                     _TU16ACON0	set	903
   211  0000                     _TU16ACON1bits	set	904
   212  0000                     _TUCHAIN	set	955
   213  0000                     _TU16ATMRL	set	907
   214  0000                     _TU16ATMRH	set	908
   215  0000                     _TU16APRL	set	909
   216  0000                     _TU16APRH	set	910
   217  0000                     _TU16APS	set	906
   218  0000                     _TU16AERS	set	912
   219  0000                     _TU16ACLK	set	911
   220  0000                     _TU16AHLT	set	905
   221  0000                     _TU16ACON1	set	904
   222  0000                     _TU16ACON0bits	set	903
   223  0000                     _INLVLF	set	1068
   224  0000                     _INLVLE	set	1060
   225  0000                     _INLVLD	set	1052
   226  0000                     _INLVLC	set	1044
   227  0000                     _INLVLB	set	1036
   228  0000                     _INLVLA	set	1028
   229  0000                     _SLRCONF	set	1067
   230  0000                     _SLRCONE	set	1059
   231  0000                     _SLRCOND	set	1051
   232  0000                     _SLRCONC	set	1043
   233  0000                     _SLRCONB	set	1035
   234  0000                     _SLRCONA	set	1027
   235  0000                     _ODCOND	set	1050
   236  0000                     _ODCONC	set	1042
   237  0000                     _ODCONB	set	1034
   238  0000                     _ODCONA	set	1026
   239  0000                     _ODCONF	set	1066
   240  0000                     _ODCONE	set	1058
   241  0000                     _WPUC	set	1041
   242  0000                     _WPUA	set	1025
   243  0000                     _WPUB	set	1033
   244  0000                     _WPUE	set	1057
   245  0000                     _WPUF	set	1065
   246  0000                     _WPUD	set	1049
   247  0000                     _ANSELA	set	1024
   248  0000                     _ANSELF	set	1064
   249  0000                     _ANSELE	set	1056
   250  0000                     _ANSELB	set	1032
   251  0000                     _ANSELC	set	1040
   252  0000                     _ANSELD	set	1048
   253  0000                     _TRISD	set	1225
   254  0000                     _TRISC	set	1224
   255  0000                     _TRISB	set	1223
   256  0000                     _TRISA	set	1222
   257  0000                     _TRISF	set	1227
   258  0000                     _TRISE	set	1226
   259  0000                     _LATC	set	1216
   260  0000                     _LATB	set	1215
   261  0000                     _LATF	set	1219
   262  0000                     _LATA	set	1214
   263  0000                     _LATD	set	1217
   264  0000                     _LATE	set	1218
   265  0000                     _PIR0bits	set	1198
   266  0000                     _INTCON0bits	set	1238
   267  0000                     _PIE0bits	set	1182
   268  0000                     _PIE4bits	set	1186
   269  0000                     _PIR4bits	set	1202
   270                           
   271                           ; #config settings
   272                           
   273                           	psect	cinit
   274  004436                     __pcinit:
   275                           	callstack 0
   276  004436                     start_initialization:
   277                           	callstack 0
   278  004436                     __initialization:
   279                           	callstack 0
   280                           
   281                           ; Initialize objects allocated to BANK5 (2 bytes)
   282                           ; load TBLPTR registers with __pidataBANK5
   283  004436  0E7E               	movlw	low __pidataBANK5
   284  004438  6EF6               	movwf	tblptrl,c
   285  00443A  0E48               	movlw	high __pidataBANK5
   286  00443C  6EF7               	movwf	tblptrh,c
   287  00443E  0E00               	movlw	low (__pidataBANK5 shr (0+16))
   288  004440  6EF8               	movwf	tblptru,c
   289  004442  0009               	tblrd		*+	;fetch initializer
   290  004444  0061 F3D4  F563    	movff	tablat,__pdataBANK5
   291  00444A  0009               	tblrd		*+	;fetch initializer
   292  00444C  0061 F3D4  F564    	movff	tablat,__pdataBANK5+1
   293                           
   294                           ; Initialize objects allocated to COMRAM (8 bytes)
   295                           ; load TBLPTR registers with __pidataCOMRAM
   296  004452  0E72               	movlw	low __pidataCOMRAM
   297  004454  6EF6               	movwf	tblptrl,c
   298  004456  0E48               	movlw	high __pidataCOMRAM
   299  004458  6EF7               	movwf	tblptrh,c
   300  00445A  0E00               	movlw	low (__pidataCOMRAM shr (0+16))
   301  00445C  6EF8               	movwf	tblptru,c
   302  00445E  EE01  F151         	lfsr	0,__pdataCOMRAM
   303  004462  EE10 F008          	lfsr	1,8
   304  004466                     copy_data0:
   305  004466  0009               	tblrd		*+
   306  004468  C4F5 F4EE          	movff	tablat,postinc0
   307  00446C  50E5               	movf	postdec1,w,c
   308  00446E  50E1               	movf	fsr1l,w,c
   309  004470  E1FA               	bnz	copy_data0
   310                           
   311                           ; Clear objects allocated to COMRAM (11 bytes)
   312  004472  EE01  F146         	lfsr	0,__pbssCOMRAM
   313  004476  0E0B               	movlw	11
   314  004478                     clear_0:
   315  004478  6AEE               	clrf	postinc0,c
   316  00447A  06E8               	decf	wreg,f,c
   317  00447C  E1FD               	bnz	clear_0
   318                           
   319                           ;
   320                           ; Setup IVTBASE
   321                           ;
   322  00447E  0104               	movlb	4
   323  004480  0E08               	movlw	(ivt0x8_base shr 0)& (0+255)
   324  004482  6F5D               	movwf	93,b
   325  004484  0E00               	movlw	(ivt0x8_base shr (0+8))& (0+255)
   326  004486  6F5E               	movwf	94,b
   327  004488  0E00               	movlw	(ivt0x8_base shr (0+16))& (0+255)
   328  00448A  6F5F               	movwf	95,b
   329  00448C                     end_of_initialization:
   330                           	callstack 0
   331  00448C                     __end_of__initialization:
   332                           	callstack 0
   333  00448C  0100               	movlb	0
   334  00448E  EF1A  F024         	goto	_main	;jump to C main() function
   335                           
   336                           	psect	bssCOMRAM
   337  000546                     __pbssCOMRAM:
   338                           	callstack 0
   339  000546                     _CAN1_FIFO1NotEmptyHandler:
   340                           	callstack 0
   341  000546                     	ds	3
   342  000549                     _rxMsgData:
   343                           	callstack 0
   344  000549                     	ds	8
   345                           
   346                           	psect	dataCOMRAM
   347  000551                     __pdataCOMRAM:
   348                           	callstack 0
   349  000551                     TU16A_DefaultInterruptHandler@F23391:
   350                           	callstack 0
   351  000551                     	ds	8
   352                           
   353                           	psect	dataBANK5
   354  000563                     __pdataBANK5:
   355                           	callstack 0
   356  000563                     _rxFifos:
   357                           	callstack 0
   358  000563                     	ds	2
   359                           
   360                           	psect	cstackBANK5
   361  000560                     __pcstackBANK5:
   362                           	callstack 0
   363  000560                     CAN1_RX_FIFO_ResetInfo@index:
   364                           	callstack 0
   365  000560                     CAN1_OperationModeSet@opMode:
   366                           	callstack 0
   367  000560                     CAN1_SetFIFO1NotEmptyHandler@handler:
   368                           	callstack 0
   369  000560                     TU16A_SetInterruptHandler@InterruptHandler:
   370                           	callstack 0
   371                           
   372                           ; 3 bytes @ 0x0
   373  000560                     	ds	1
   374  000561                     CAN1_OperationModeSet@status:
   375                           	callstack 0
   376                           
   377                           ; 1 bytes @ 0x1
   378  000561                     	ds	1
   379  000562                     CAN1_OperationModeSet@requestMode:
   380                           	callstack 0
   381                           
   382                           ; 1 bytes @ 0x2
   383  000562                     	ds	1
   384  000563                     
   385                           ; 1 bytes @ 0x3
   386                           
   387                           	psect	cstackCOMRAM
   388  000501                     __pcstackCOMRAM:
   389                           	callstack 0
   390  000501                     ??_GetRxFifoDepth:
   391  000501                     GetRxFifoStatus@validChannel:
   392                           	callstack 0
   393  000501                     _isTxChannel$620:
   394                           	callstack 0
   395  000501                     GetTxFifoStatus@validChannel:
   396                           	callstack 0
   397  000501                     memcpy@d1:
   398                           	callstack 0
   399                           
   400                           ; 2 bytes @ 0x0
   401  000501                     	ds	1
   402  000502                     GetRxFifoDepth@validChannel:
   403                           	callstack 0
   404  000502                     isTxChannel@channel:
   405                           	callstack 0
   406  000502                     ValidateTransmission@txCanMsg:
   407                           	callstack 0
   408                           
   409                           ; 2 bytes @ 0x1
   410  000502                     	ds	1
   411  000503                     CAN1_ReceivedMessageCountGet@totalMsgObj:
   412                           	callstack 0
   413  000503                     CAN1_TransmitFIFOStatusGet@status:
   414                           	callstack 0
   415  000503                     memcpy@s1:
   416                           	callstack 0
   417                           
   418                           ; 2 bytes @ 0x2
   419  000503                     	ds	1
   420  000504                     ??_ValidateTransmission:
   421  000504                     CAN1_ReceivedMessageCountGet@numOfMsg:
   422                           	callstack 0
   423  000504                     CAN1_TransmitFIFOStatusGet@fifoChannel:
   424                           	callstack 0
   425                           
   426                           ; 1 bytes @ 0x3
   427  000504                     	ds	1
   428  000505                     CAN1_ReceivedMessageCountGet@rxMsgStatus:
   429                           	callstack 0
   430  000505                     memcpy@n:
   431                           	callstack 0
   432                           
   433                           ; 2 bytes @ 0x4
   434  000505                     	ds	1
   435  000506                     CAN1_ReceivedMessageCountGet@channel:
   436                           	callstack 0
   437                           
   438                           ; 1 bytes @ 0x5
   439  000506                     	ds	1
   440  000507                     CAN1_ReceivedMessageCountGet@fifoDepth:
   441                           	callstack 0
   442  000507                     memcpy@d:
   443                           	callstack 0
   444                           
   445                           ; 2 bytes @ 0x6
   446  000507                     	ds	1
   447  000508                     CAN1_ReceivedMessageCountGet@fifoTail:
   448                           	callstack 0
   449                           
   450                           ; 1 bytes @ 0x7
   451  000508                     	ds	1
   452  000509                     CAN1_ReceivedMessageCountGet@fifoHead:
   453                           	callstack 0
   454  000509                     ValidateTransmission@plsize:
   455                           	callstack 0
   456  000509                     memcpy@s:
   457                           	callstack 0
   458                           
   459                           ; 2 bytes @ 0x8
   460  000509                     	ds	1
   461  00050A                     CAN1_ReceivedMessageCountGet@index:
   462                           	callstack 0
   463  00050A                     ValidateTransmission@validChannel:
   464                           	callstack 0
   465                           
   466                           ; 1 bytes @ 0x9
   467  00050A                     	ds	1
   468  00050B                     ValidateTransmission@txMsgStatus:
   469                           	callstack 0
   470  00050B                     memcpy@tmp:
   471                           	callstack 0
   472                           
   473                           ; 1 bytes @ 0xA
   474  00050B                     	ds	1
   475  00050C                     ValidateTransmission@field:
   476                           	callstack 0
   477  00050C                     ReadMessageFromFifo@rxFifoObj:
   478                           	callstack 0
   479  00050C                     WriteMessageToFifo@txFifoObj:
   480                           	callstack 0
   481                           
   482                           ; 2 bytes @ 0xB
   483  00050C                     	ds	2
   484  00050E                     ReadMessageFromFifo@rxCanMsg:
   485                           	callstack 0
   486  00050E                     WriteMessageToFifo@txCanMsg:
   487                           	callstack 0
   488                           
   489                           ; 2 bytes @ 0xD
   490  00050E                     	ds	2
   491  000510                     ??_ReadMessageFromFifo:
   492  000510                     ??_WriteMessageToFifo:
   493                           
   494                           ; 1 bytes @ 0xF
   495  000510                     	ds	3
   496  000513                     WriteMessageToFifo@status:
   497                           	callstack 0
   498  000513                     ReadMessageFromFifo@msgId:
   499                           	callstack 0
   500                           
   501                           ; 4 bytes @ 0x12
   502  000513                     	ds	1
   503  000514                     WriteMessageToFifo@msgId:
   504                           	callstack 0
   505                           
   506                           ; 4 bytes @ 0x13
   507  000514                     	ds	3
   508  000517                     ReadMessageFromFifo@status:
   509                           	callstack 0
   510                           
   511                           ; 1 bytes @ 0x16
   512  000517                     	ds	1
   513  000518                     Receive@channel:
   514                           	callstack 0
   515  000518                     CAN1_Transmit@txCanMsg:
   516                           	callstack 0
   517                           
   518                           ; 2 bytes @ 0x17
   519  000518                     	ds	1
   520  000519                     Receive@rxCanMsg:
   521                           	callstack 0
   522                           
   523                           ; 2 bytes @ 0x18
   524  000519                     	ds	1
   525  00051A                     CAN1_Transmit@status:
   526                           	callstack 0
   527                           
   528                           ; 1 bytes @ 0x19
   529  00051A                     	ds	1
   530  00051B                     ??_Receive:
   531  00051B                     CAN1_Transmit@txFifoObj:
   532                           	callstack 0
   533                           
   534                           ; 2 bytes @ 0x1A
   535  00051B                     	ds	2
   536  00051D                     Receive@status:
   537                           	callstack 0
   538  00051D                     CAN1_Transmit@fifoChannel:
   539                           	callstack 0
   540                           
   541                           ; 1 bytes @ 0x1C
   542  00051D                     	ds	1
   543  00051E                     ??_TU16A_DefaultInterruptHandler:
   544  00051E                     Receive@rxFifoObj:
   545                           	callstack 0
   546                           
   547                           ; 2 bytes @ 0x1D
   548  00051E                     	ds	1
   549  00051F                     TU16A_DefaultInterruptHandler@Transmit_Data:
   550                           	callstack 0
   551                           
   552                           ; 8 bytes @ 0x1E
   553  00051F                     	ds	1
   554  000520                     Receive@rxMsgStatus:
   555                           	callstack 0
   556                           
   557                           ; 1 bytes @ 0x1F
   558  000520                     	ds	1
   559  000521                     Receive@index:
   560                           	callstack 0
   561                           
   562                           ; 1 bytes @ 0x20
   563  000521                     	ds	1
   564  000522                     CAN1_ReceiveFrom@rxCanMsg:
   565                           	callstack 0
   566                           
   567                           ; 2 bytes @ 0x21
   568  000522                     	ds	2
   569  000524                     
   570                           ; 1 bytes @ 0x23
   571  000524                     	ds	1
   572  000525                     CAN1_ReceiveFrom@status:
   573                           	callstack 0
   574                           
   575                           ; 1 bytes @ 0x24
   576  000525                     	ds	1
   577  000526                     CAN1_ReceiveFrom@channel:
   578                           	callstack 0
   579                           
   580                           ; 1 bytes @ 0x25
   581  000526                     	ds	1
   582  000527                     CAN1_ReceiveFrom@index:
   583                           	callstack 0
   584  000527                     TU16A_DefaultInterruptHandler@Transmission:
   585                           	callstack 0
   586                           
   587                           ; 7 bytes @ 0x26
   588  000527                     	ds	1
   589  000528                     ??_DefaultFIFO1NotEmptyHandler:
   590                           
   591                           ; 1 bytes @ 0x27
   592  000528                     	ds	1
   593  000529                     DefaultFIFO1NotEmptyHandler@numBytes:
   594                           	callstack 0
   595                           
   596                           ; 1 bytes @ 0x28
   597  000529                     	ds	1
   598  00052A                     DefaultFIFO1NotEmptyHandler@mode:
   599                           	callstack 0
   600                           
   601                           ; 1 bytes @ 0x29
   602  00052A                     	ds	1
   603  00052B                     DefaultFIFO1NotEmptyHandler@data_Out:
   604                           	callstack 0
   605                           
   606                           ; 8 bytes @ 0x2A
   607  00052B                     	ds	3
   608  00052E                     
   609                           ; 1 bytes @ 0x2D
   610  00052E                     	ds	5
   611  000533                     DefaultFIFO1NotEmptyHandler@Currently_Processing:
   612                           	callstack 0
   613                           
   614                           ; 7 bytes @ 0x32
   615  000533                     	ds	7
   616  00053A                     DefaultFIFO1NotEmptyHandler@PID:
   617                           	callstack 0
   618                           
   619                           ; 1 bytes @ 0x39
   620  00053A                     	ds	1
   621  00053B                     DefaultFIFO1NotEmptyHandler@Return_Message:
   622                           	callstack 0
   623                           
   624                           ; 7 bytes @ 0x3A
   625  00053B                     	ds	7
   626  000542                     ??_INTERRUPT_InterruptManager:
   627                           
   628                           ; 1 bytes @ 0x41
   629  000542                     	ds	4
   630                           
   631 ;;
   632 ;;Main: autosize = 0, tempsize = 0, incstack = 0, save=0
   633 ;;
   634 ;; *************** function _main *****************
   635 ;; Defined at:
   636 ;;		line 49 in file "main.c"
   637 ;; Parameters:    Size  Location     Type
   638 ;;		None
   639 ;; Auto vars:     Size  Location     Type
   640 ;;		None
   641 ;; Return value:  Size  Location     Type
   642 ;;                  1    wreg      void 
   643 ;; Registers used:
   644 ;;		wreg, fsr2l, fsr2h, status,2, status,0, prodl, prodh, cstack
   645 ;; Tracked objects:
   646 ;;		On entry : 0/0
   647 ;;		On exit  : 0/0
   648 ;;		Unchanged: 0/0
   649 ;; Data sizes:     COMRAM   BANK5   BANK6   BANK7   BANK8   BANK9  BANK10  BANK11  BANK12  BANK13  BANK14  BANK15  BANK1
      +6  BANK17  BANK18  BANK19  BANK20  BANK21  BANK22  BANK23  BANK24  BANK25  BANK26  BANK27  BANK28  BANK29  BANK30  BANK3
      +1  BANK32  BANK33  BANK34  BANK35  BANK36  BANK37  BANK38  BANK39  BANK40  BANK41  BANK42  BANK43  BANK44  BANK45  BANK4
      +6  BANK47  BANK48  BANK49  BANK50  BANK51  BANK52  BANK53  BANK54  BANK55
   650 ;;      Params:         0       0       0       0       0       0       0       0       0       0       0       0       
      +0       0       0       0       0       0       0       0       0       0       0       0       0       0       0       
      +0       0       0       0       0       0       0       0       0       0       0       0       0       0       0       
      +0       0       0       0       0       0       0       0       0       0
   651 ;;      Locals:         0       0       0       0       0       0       0       0       0       0       0       0       
      +0       0       0       0       0       0       0       0       0       0       0       0       0       0       0       
      +0       0       0       0       0       0       0       0       0       0       0       0       0       0       0       
      +0       0       0       0       0       0       0       0       0       0
   652 ;;      Temps:          0       0       0       0       0       0       0       0       0       0       0       0       
      +0       0       0       0       0       0       0       0       0       0       0       0       0       0       0       
      +0       0       0       0       0       0       0       0       0       0       0       0       0       0       0       
      +0       0       0       0       0       0       0       0       0       0
   653 ;;      Totals:         0       0       0       0       0       0       0       0       0       0       0       0       
      +0       0       0       0       0       0       0       0       0       0       0       0       0       0       0       
      +0       0       0       0       0       0       0       0       0       0       0       0       0       0       0       
      +0       0       0       0       0       0       0       0       0       0
   654 ;;Total ram usage:        0 bytes
   655 ;; Hardware stack levels required when called:   11
   656 ;; This function calls:
   657 ;;		_SYSTEM_Initialize
   658 ;; This function is called by:
   659 ;;		Startup code after reset
   660 ;; This function uses a non-reentrant model
   661 ;;
   662                           
   663                           	psect	text0
   664  004834                     __ptext0:
   665                           	callstack 0
   666  004834                     _main:
   667                           	callstack 117
   668  004834                     
   669                           ;main.c: 52:     SYSTEM_Initialize();
   670  004834  ECEB  F023         	call	_SYSTEM_Initialize	;wreg free
   671  004838                     
   672                           ;main.c: 59:     (INTCON0bits.GIE = 1);
   673  004838  8ED6               	bsf	214,7,c	;volatile
   674  00483A                     l594:
   675  00483A  EF1D  F024         	goto	l594
   676  00483E  EF0D  F000         	goto	start
   677  004842                     __end_of_main:
   678                           	callstack 0
   679                           
   680 ;; *************** function _SYSTEM_Initialize *****************
   681 ;; Defined at:
   682 ;;		line 50 in file "mcc_generated_files/mcc.c"
   683 ;; Parameters:    Size  Location     Type
   684 ;;		None
   685 ;; Auto vars:     Size  Location     Type
   686 ;;		None
   687 ;; Return value:  Size  Location     Type
   688 ;;                  1    wreg      void 
   689 ;; Registers used:
   690 ;;		wreg, fsr2l, fsr2h, status,2, status,0, prodl, prodh, cstack
   691 ;; Tracked objects:
   692 ;;		On entry : 0/0
   693 ;;		On exit  : 0/0
   694 ;;		Unchanged: 0/0
   695 ;; Data sizes:     COMRAM   BANK5   BANK6   BANK7   BANK8   BANK9  BANK10  BANK11  BANK12  BANK13  BANK14  BANK15  BANK1
      +6  BANK17  BANK18  BANK19  BANK20  BANK21  BANK22  BANK23  BANK24  BANK25  BANK26  BANK27  BANK28  BANK29  BANK30  BANK3
      +1  BANK32  BANK33  BANK34  BANK35  BANK36  BANK37  BANK38  BANK39  BANK40  BANK41  BANK42  BANK43  BANK44  BANK45  BANK4
      +6  BANK47  BANK48  BANK49  BANK50  BANK51  BANK52  BANK53  BANK54  BANK55
   696 ;;      Params:         0       0       0       0       0       0       0       0       0       0       0       0       
      +0       0       0       0       0       0       0       0       0       0       0       0       0       0       0       
      +0       0       0       0       0       0       0       0       0       0       0       0       0       0       0       
      +0       0       0       0       0       0       0       0       0       0
   697 ;;      Locals:         0       0       0       0       0       0       0       0       0       0       0       0       
      +0       0       0       0       0       0       0       0       0       0       0       0       0       0       0       
      +0       0       0       0       0       0       0       0       0       0       0       0       0       0       0       
      +0       0       0       0       0       0       0       0       0       0
   698 ;;      Temps:          0       0       0       0       0       0       0       0       0       0       0       0       
      +0       0       0       0       0       0       0       0       0       0       0       0       0       0       0       
      +0       0       0       0       0       0       0       0       0       0       0       0       0       0       0       
      +0       0       0       0       0       0       0       0       0       0
   699 ;;      Totals:         0       0       0       0       0       0       0       0       0       0       0       0       
      +0       0       0       0       0       0       0       0       0       0       0       0       0       0       0       
      +0       0       0       0       0       0       0       0       0       0       0       0       0       0       0       
      +0       0       0       0       0       0       0       0       0       0
   700 ;;Total ram usage:        0 bytes
   701 ;; Hardware stack levels used:    1
   702 ;; Hardware stack levels required when called:   10
   703 ;; This function calls:
   704 ;;		_CAN1_Initialize
   705 ;;		_INTERRUPT_Initialize
   706 ;;		_OSCILLATOR_Initialize
   707 ;;		_PIN_MANAGER_Initialize
   708 ;;		_PMD_Initialize
   709 ;;		_TU16A_Initialize
   710 ;; This function is called by:
   711 ;;		_main
   712 ;; This function uses a non-reentrant model
   713 ;;
   714                           
   715                           	psect	text1
   716  0047D6                     __ptext1:
   717                           	callstack 0
   718  0047D6                     _SYSTEM_Initialize:
   719                           	callstack 117
   720  0047D6                     
   721                           ;mcc_generated_files/mcc.c: 52:     INTERRUPT_Initialize();
   722  0047D6  EC3D  F024         	call	_INTERRUPT_Initialize	;wreg free
   723  0047DA                     
   724                           ;mcc_generated_files/mcc.c: 53:     PMD_Initialize();
   725  0047DA  EC8E  F023         	call	_PMD_Initialize	;wreg free
   726  0047DE                     
   727                           ;mcc_generated_files/mcc.c: 54:     TU16A_Initialize();
   728  0047DE  ECCD  F022         	call	_TU16A_Initialize	;wreg free
   729  0047E2                     
   730                           ;mcc_generated_files/mcc.c: 55:     PIN_MANAGER_Initialize();
   731  0047E2  EC67  F021         	call	_PIN_MANAGER_Initialize	;wreg free
   732  0047E6                     
   733                           ;mcc_generated_files/mcc.c: 56:     OSCILLATOR_Initialize();
   734  0047E6  ECB6  F023         	call	_OSCILLATOR_Initialize	;wreg free
   735  0047EA                     
   736                           ;mcc_generated_files/mcc.c: 57:     CAN1_Initialize();
   737  0047EA  ECA3  F022         	call	_CAN1_Initialize	;wreg free
   738  0047EE  0012               	return		;funcret
   739  0047F0                     __end_of_SYSTEM_Initialize:
   740                           	callstack 0
   741                           
   742 ;; *************** function _TU16A_Initialize *****************
   743 ;; Defined at:
   744 ;;		line 57 in file "mcc_generated_files/tu16a.c"
   745 ;; Parameters:    Size  Location     Type
   746 ;;		None
   747 ;; Auto vars:     Size  Location     Type
   748 ;;		None
   749 ;; Return value:  Size  Location     Type
   750 ;;                  1    wreg      void 
   751 ;; Registers used:
   752 ;;		wreg, status,2, status,0, cstack
   753 ;; Tracked objects:
   754 ;;		On entry : 0/0
   755 ;;		On exit  : 0/0
   756 ;;		Unchanged: 0/0
   757 ;; Data sizes:     COMRAM   BANK5   BANK6   BANK7   BANK8   BANK9  BANK10  BANK11  BANK12  BANK13  BANK14  BANK15  BANK1
      +6  BANK17  BANK18  BANK19  BANK20  BANK21  BANK22  BANK23  BANK24  BANK25  BANK26  BANK27  BANK28  BANK29  BANK30  BANK3
      +1  BANK32  BANK33  BANK34  BANK35  BANK36  BANK37  BANK38  BANK39  BANK40  BANK41  BANK42  BANK43  BANK44  BANK45  BANK4
      +6  BANK47  BANK48  BANK49  BANK50  BANK51  BANK52  BANK53  BANK54  BANK55
   758 ;;      Params:         0       0       0       0       0       0       0       0       0       0       0       0       
      +0       0       0       0       0       0       0       0       0       0       0       0       0       0       0       
      +0       0       0       0       0       0       0       0       0       0       0       0       0       0       0       
      +0       0       0       0       0       0       0       0       0       0
   759 ;;      Locals:         0       0       0       0       0       0       0       0       0       0       0       0       
      +0       0       0       0       0       0       0       0       0       0       0       0       0       0       0       
      +0       0       0       0       0       0       0       0       0       0       0       0       0       0       0       
      +0       0       0       0       0       0       0       0       0       0
   760 ;;      Temps:          0       0       0       0       0       0       0       0       0       0       0       0       
      +0       0       0       0       0       0       0       0       0       0       0       0       0       0       0       
      +0       0       0       0       0       0       0       0       0       0       0       0       0       0       0       
      +0       0       0       0       0       0       0       0       0       0
   761 ;;      Totals:         0       0       0       0       0       0       0       0       0       0       0       0       
      +0       0       0       0       0       0       0       0       0       0       0       0       0       0       0       
      +0       0       0       0       0       0       0       0       0       0       0       0       0       0       0       
      +0       0       0       0       0       0       0       0       0       0
   762 ;;Total ram usage:        0 bytes
   763 ;; Hardware stack levels used:    1
   764 ;; Hardware stack levels required when called:    8
   765 ;; This function calls:
   766 ;;		_TU16A_SetInterruptHandler
   767 ;; This function is called by:
   768 ;;		_SYSTEM_Initialize
   769 ;; This function uses a non-reentrant model
   770 ;;
   771                           
   772                           	psect	text2
   773  00459A                     __ptext2:
   774                           	callstack 0
   775  00459A                     _TU16A_Initialize:
   776                           	callstack 118
   777  00459A                     
   778                           ;mcc_generated_files/tu16a.c: 60:     TU16ACON0bits.ON = 0;
   779  00459A  0103               	movlb	3	; () banked
   780  00459C  9F87               	bcf	135,7,b	;volatile
   781  00459E                     
   782                           ; BSR set to: 3
   783                           ;mcc_generated_files/tu16a.c: 62:     TU16ACON1 = 0x00;
   784  00459E  0E00               	movlw	0
   785  0045A0  6F88               	movwf	136,b	;volatile
   786                           
   787                           ;mcc_generated_files/tu16a.c: 64:     TU16AHLT = 0x0C;
   788  0045A2  0E0C               	movlw	12
   789  0045A4  6F89               	movwf	137,b	;volatile
   790                           
   791                           ;mcc_generated_files/tu16a.c: 66:     TU16ACLK = 0x04;
   792  0045A6  0E04               	movlw	4
   793  0045A8  6F8F               	movwf	143,b	;volatile
   794                           
   795                           ;mcc_generated_files/tu16a.c: 68:     TU16AERS = 0x00;
   796  0045AA  0E00               	movlw	0
   797  0045AC  6F90               	movwf	144,b	;volatile
   798                           
   799                           ;mcc_generated_files/tu16a.c: 70:     TU16APS = 0x01;
   800  0045AE  0E01               	movlw	1
   801  0045B0  6F8A               	movwf	138,b	;volatile
   802                           
   803                           ;mcc_generated_files/tu16a.c: 72:     TU16APRH = 0x3C;
   804  0045B2  0E3C               	movlw	60
   805  0045B4  6F8E               	movwf	142,b	;volatile
   806                           
   807                           ;mcc_generated_files/tu16a.c: 74:     TU16APRL = 0x8C;
   808  0045B6  0E8C               	movlw	140
   809  0045B8  6F8D               	movwf	141,b	;volatile
   810                           
   811                           ;mcc_generated_files/tu16a.c: 76:     TU16ATMRH = 0x00;
   812  0045BA  0E00               	movlw	0
   813  0045BC  6F8C               	movwf	140,b	;volatile
   814                           
   815                           ;mcc_generated_files/tu16a.c: 78:     TU16ATMRL = 0x00;
   816  0045BE  0E00               	movlw	0
   817  0045C0  6F8B               	movwf	139,b	;volatile
   818                           
   819                           ;mcc_generated_files/tu16a.c: 80:     TUCHAIN = 0x00;
   820  0045C2  0E00               	movlw	0
   821  0045C4  6FBB               	movwf	187,b	;volatile
   822  0045C6                     
   823                           ; BSR set to: 3
   824                           ;mcc_generated_files/tu16a.c: 82:     TU16ACON1bits.PRIF = 0;
   825  0045C6  9588               	bcf	136,2,b	;volatile
   826  0045C8                     
   827                           ; BSR set to: 3
   828                           ;mcc_generated_files/tu16a.c: 83:     TU16ACON1bits.ZIF = 0;
   829  0045C8  9388               	bcf	136,1,b	;volatile
   830  0045CA                     
   831                           ; BSR set to: 3
   832                           ;mcc_generated_files/tu16a.c: 84:     TU16ACON1bits.CIF = 0;
   833  0045CA  9188               	bcf	136,0,b	;volatile
   834  0045CC                     
   835                           ; BSR set to: 3
   836                           ;mcc_generated_files/tu16a.c: 86:     TU16A_SetInterruptHandler(TU16A_DefaultInterruptHa
      +                          ndler);
   837  0045CC  0ED6               	movlw	low _TU16A_DefaultInterruptHandler
   838  0045CE  0105               	movlb	5	; () banked
   839  0045D0  6F60               	movwf	TU16A_SetInterruptHandler@InterruptHandler& (0+255),b
   840  0045D2  0E43               	movlw	high _TU16A_DefaultInterruptHandler
   841  0045D4  6F61               	movwf	(TU16A_SetInterruptHandler@InterruptHandler+1)& (0+255),b
   842  0045D6  0E00               	movlw	low (_TU16A_DefaultInterruptHandler shr (0+16))
   843  0045D8  6F62               	movwf	(TU16A_SetInterruptHandler@InterruptHandler+2)& (0+255),b
   844  0045DA  EC21  F024         	call	_TU16A_SetInterruptHandler	;wreg free
   845  0045DE                     
   846                           ;mcc_generated_files/tu16a.c: 88:     PIE0bits.TU16AIE = 1;
   847  0045DE  889E               	bsf	158,4,c	;volatile
   848  0045E0                     
   849                           ;mcc_generated_files/tu16a.c: 90:     TU16ACON0 = 0x84;
   850  0045E0  0E84               	movlw	132
   851  0045E2  0103               	movlb	3	; () banked
   852  0045E4  6F87               	movwf	135,b	;volatile
   853  0045E6                     
   854                           ; BSR set to: 3
   855  0045E6  0012               	return		;funcret
   856  0045E8                     __end_of_TU16A_Initialize:
   857                           	callstack 0
   858                           
   859 ;; *************** function _TU16A_SetInterruptHandler *****************
   860 ;; Defined at:
   861 ;;		line 240 in file "mcc_generated_files/tu16a.c"
   862 ;; Parameters:    Size  Location     Type
   863 ;;  InterruptHan    3    0[BANK5 ] PTR FTN()void 
   864 ;;		 -> TU16A_DefaultInterruptHandler(1), 
   865 ;; Auto vars:     Size  Location     Type
   866 ;;		None
   867 ;; Return value:  Size  Location     Type
   868 ;;                  1    wreg      void 
   869 ;; Registers used:
   870 ;;		wreg, status,2, status,0
   871 ;; Tracked objects:
   872 ;;		On entry : 0/0
   873 ;;		On exit  : 0/0
   874 ;;		Unchanged: 0/0
   875 ;; Data sizes:     COMRAM   BANK5   BANK6   BANK7   BANK8   BANK9  BANK10  BANK11  BANK12  BANK13  BANK14  BANK15  BANK1
      +6  BANK17  BANK18  BANK19  BANK20  BANK21  BANK22  BANK23  BANK24  BANK25  BANK26  BANK27  BANK28  BANK29  BANK30  BANK3
      +1  BANK32  BANK33  BANK34  BANK35  BANK36  BANK37  BANK38  BANK39  BANK40  BANK41  BANK42  BANK43  BANK44  BANK45  BANK4
      +6  BANK47  BANK48  BANK49  BANK50  BANK51  BANK52  BANK53  BANK54  BANK55
   876 ;;      Params:         0       3       0       0       0       0       0       0       0       0       0       0       
      +0       0       0       0       0       0       0       0       0       0       0       0       0       0       0       
      +0       0       0       0       0       0       0       0       0       0       0       0       0       0       0       
      +0       0       0       0       0       0       0       0       0       0
   877 ;;      Locals:         0       0       0       0       0       0       0       0       0       0       0       0       
      +0       0       0       0       0       0       0       0       0       0       0       0       0       0       0       
      +0       0       0       0       0       0       0       0       0       0       0       0       0       0       0       
      +0       0       0       0       0       0       0       0       0       0
   878 ;;      Temps:          0       0       0       0       0       0       0       0       0       0       0       0       
      +0       0       0       0       0       0       0       0       0       0       0       0       0       0       0       
      +0       0       0       0       0       0       0       0       0       0       0       0       0       0       0       
      +0       0       0       0       0       0       0       0       0       0
   879 ;;      Totals:         0       3       0       0       0       0       0       0       0       0       0       0       
      +0       0       0       0       0       0       0       0       0       0       0       0       0       0       0       
      +0       0       0       0       0       0       0       0       0       0       0       0       0       0       0       
      +0       0       0       0       0       0       0       0       0       0
   880 ;;Total ram usage:        3 bytes
   881 ;; Hardware stack levels used:    1
   882 ;; Hardware stack levels required when called:    7
   883 ;; This function calls:
   884 ;;		Nothing
   885 ;; This function is called by:
   886 ;;		_TU16A_Initialize
   887 ;; This function uses a non-reentrant model
   888 ;;
   889                           
   890                           	psect	text3
   891  004842                     __ptext3:
   892                           	callstack 0
   893  004842                     _TU16A_SetInterruptHandler:
   894                           	callstack 118
   895  004842                     
   896                           ;mcc_generated_files/tu16a.c: 241:     TU16A_InterruptHandler = InterruptHandler;
   897  004842  C560  F559         	movff	TU16A_SetInterruptHandler@InterruptHandler,_TU16A_InterruptHandler
   898  004846  C561  F55A         	movff	TU16A_SetInterruptHandler@InterruptHandler+1,_TU16A_InterruptHandler+1
   899  00484A  C562  F55B         	movff	TU16A_SetInterruptHandler@InterruptHandler+2,_TU16A_InterruptHandler+2
   900  00484E  0012               	return		;funcret
   901  004850                     __end_of_TU16A_SetInterruptHandler:
   902                           	callstack 0
   903                           
   904 ;; *************** function _PMD_Initialize *****************
   905 ;; Defined at:
   906 ;;		line 78 in file "mcc_generated_files/mcc.c"
   907 ;; Parameters:    Size  Location     Type
   908 ;;		None
   909 ;; Auto vars:     Size  Location     Type
   910 ;;		None
   911 ;; Return value:  Size  Location     Type
   912 ;;                  1    wreg      void 
   913 ;; Registers used:
   914 ;;		wreg, status,2
   915 ;; Tracked objects:
   916 ;;		On entry : 0/0
   917 ;;		On exit  : 0/0
   918 ;;		Unchanged: 0/0
   919 ;; Data sizes:     COMRAM   BANK5   BANK6   BANK7   BANK8   BANK9  BANK10  BANK11  BANK12  BANK13  BANK14  BANK15  BANK1
      +6  BANK17  BANK18  BANK19  BANK20  BANK21  BANK22  BANK23  BANK24  BANK25  BANK26  BANK27  BANK28  BANK29  BANK30  BANK3
      +1  BANK32  BANK33  BANK34  BANK35  BANK36  BANK37  BANK38  BANK39  BANK40  BANK41  BANK42  BANK43  BANK44  BANK45  BANK4
      +6  BANK47  BANK48  BANK49  BANK50  BANK51  BANK52  BANK53  BANK54  BANK55
   920 ;;      Params:         0       0       0       0       0       0       0       0       0       0       0       0       
      +0       0       0       0       0       0       0       0       0       0       0       0       0       0       0       
      +0       0       0       0       0       0       0       0       0       0       0       0       0       0       0       
      +0       0       0       0       0       0       0       0       0       0
   921 ;;      Locals:         0       0       0       0       0       0       0       0       0       0       0       0       
      +0       0       0       0       0       0       0       0       0       0       0       0       0       0       0       
      +0       0       0       0       0       0       0       0       0       0       0       0       0       0       0       
      +0       0       0       0       0       0       0       0       0       0
   922 ;;      Temps:          0       0       0       0       0       0       0       0       0       0       0       0       
      +0       0       0       0       0       0       0       0       0       0       0       0       0       0       0       
      +0       0       0       0       0       0       0       0       0       0       0       0       0       0       0       
      +0       0       0       0       0       0       0       0       0       0
   923 ;;      Totals:         0       0       0       0       0       0       0       0       0       0       0       0       
      +0       0       0       0       0       0       0       0       0       0       0       0       0       0       0       
      +0       0       0       0       0       0       0       0       0       0       0       0       0       0       0       
      +0       0       0       0       0       0       0       0       0       0
   924 ;;Total ram usage:        0 bytes
   925 ;; Hardware stack levels used:    1
   926 ;; Hardware stack levels required when called:    7
   927 ;; This function calls:
   928 ;;		Nothing
   929 ;; This function is called by:
   930 ;;		_SYSTEM_Initialize
   931 ;; This function uses a non-reentrant model
   932 ;;
   933                           
   934                           	psect	text4
   935  00471C                     __ptext4:
   936                           	callstack 0
   937  00471C                     _PMD_Initialize:
   938                           	callstack 119
   939  00471C                     
   940                           ;mcc_generated_files/mcc.c: 81:     PMD0 = 0x00;
   941  00471C  0E00               	movlw	0
   942  00471E  0100               	movlb	0	; () banked
   943  004720  6F60               	movwf	96,b	;volatile
   944                           
   945                           ;mcc_generated_files/mcc.c: 83:     PMD1 = 0x00;
   946  004722  0E00               	movlw	0
   947  004724  6F61               	movwf	97,b	;volatile
   948                           
   949                           ;mcc_generated_files/mcc.c: 85:     PMD2 = 0x00;
   950  004726  0E00               	movlw	0
   951  004728  6F62               	movwf	98,b	;volatile
   952                           
   953                           ;mcc_generated_files/mcc.c: 87:     PMD3 = 0x00;
   954  00472A  0E00               	movlw	0
   955  00472C  6F63               	movwf	99,b	;volatile
   956                           
   957                           ;mcc_generated_files/mcc.c: 89:     PMD4 = 0x00;
   958  00472E  0E00               	movlw	0
   959  004730  6F64               	movwf	100,b	;volatile
   960                           
   961                           ;mcc_generated_files/mcc.c: 91:     PMD5 = 0x00;
   962  004732  0E00               	movlw	0
   963  004734  6F65               	movwf	101,b	;volatile
   964                           
   965                           ;mcc_generated_files/mcc.c: 93:     PMD6 = 0x00;
   966  004736  0E00               	movlw	0
   967  004738  6F66               	movwf	102,b	;volatile
   968                           
   969                           ;mcc_generated_files/mcc.c: 95:     PMD7 = 0x00;
   970  00473A  0E00               	movlw	0
   971  00473C  6F67               	movwf	103,b	;volatile
   972                           
   973                           ;mcc_generated_files/mcc.c: 97:     PMD8 = 0x00;
   974  00473E  0E00               	movlw	0
   975  004740  6F68               	movwf	104,b	;volatile
   976  004742                     
   977                           ; BSR set to: 0
   978  004742  0012               	return		;funcret
   979  004744                     __end_of_PMD_Initialize:
   980                           	callstack 0
   981                           
   982 ;; *************** function _PIN_MANAGER_Initialize *****************
   983 ;; Defined at:
   984 ;;		line 55 in file "mcc_generated_files/pin_manager.c"
   985 ;; Parameters:    Size  Location     Type
   986 ;;		None
   987 ;; Auto vars:     Size  Location     Type
   988 ;;		None
   989 ;; Return value:  Size  Location     Type
   990 ;;                  1    wreg      void 
   991 ;; Registers used:
   992 ;;		wreg, status,2
   993 ;; Tracked objects:
   994 ;;		On entry : 0/0
   995 ;;		On exit  : 0/0
   996 ;;		Unchanged: 0/0
   997 ;; Data sizes:     COMRAM   BANK5   BANK6   BANK7   BANK8   BANK9  BANK10  BANK11  BANK12  BANK13  BANK14  BANK15  BANK1
      +6  BANK17  BANK18  BANK19  BANK20  BANK21  BANK22  BANK23  BANK24  BANK25  BANK26  BANK27  BANK28  BANK29  BANK30  BANK3
      +1  BANK32  BANK33  BANK34  BANK35  BANK36  BANK37  BANK38  BANK39  BANK40  BANK41  BANK42  BANK43  BANK44  BANK45  BANK4
      +6  BANK47  BANK48  BANK49  BANK50  BANK51  BANK52  BANK53  BANK54  BANK55
   998 ;;      Params:         0       0       0       0       0       0       0       0       0       0       0       0       
      +0       0       0       0       0       0       0       0       0       0       0       0       0       0       0       
      +0       0       0       0       0       0       0       0       0       0       0       0       0       0       0       
      +0       0       0       0       0       0       0       0       0       0
   999 ;;      Locals:         0       0       0       0       0       0       0       0       0       0       0       0       
      +0       0       0       0       0       0       0       0       0       0       0       0       0       0       0       
      +0       0       0       0       0       0       0       0       0       0       0       0       0       0       0       
      +0       0       0       0       0       0       0       0       0       0
  1000 ;;      Temps:          0       0       0       0       0       0       0       0       0       0       0       0       
      +0       0       0       0       0       0       0       0       0       0       0       0       0       0       0       
      +0       0       0       0       0       0       0       0       0       0       0       0       0       0       0       
      +0       0       0       0       0       0       0       0       0       0
  1001 ;;      Totals:         0       0       0       0       0       0       0       0       0       0       0       0       
      +0       0       0       0       0       0       0       0       0       0       0       0       0       0       0       
      +0       0       0       0       0       0       0       0       0       0       0       0       0       0       0       
      +0       0       0       0       0       0       0       0       0       0
  1002 ;;Total ram usage:        0 bytes
  1003 ;; Hardware stack levels used:    1
  1004 ;; Hardware stack levels required when called:    7
  1005 ;; This function calls:
  1006 ;;		Nothing
  1007 ;; This function is called by:
  1008 ;;		_SYSTEM_Initialize
  1009 ;; This function uses a non-reentrant model
  1010 ;;
  1011                           
  1012                           	psect	text5
  1013  0042CE                     __ptext5:
  1014                           	callstack 0
  1015  0042CE                     _PIN_MANAGER_Initialize:
  1016                           	callstack 119
  1017  0042CE                     
  1018                           ;mcc_generated_files/pin_manager.c: 60:     LATE = 0x00;
  1019  0042CE  0E00               	movlw	0
  1020  0042D0  6EC2               	movwf	194,c	;volatile
  1021                           
  1022                           ;mcc_generated_files/pin_manager.c: 61:     LATD = 0x00;
  1023  0042D2  0E00               	movlw	0
  1024  0042D4  6EC1               	movwf	193,c	;volatile
  1025                           
  1026                           ;mcc_generated_files/pin_manager.c: 62:     LATA = 0x00;
  1027  0042D6  0E00               	movlw	0
  1028  0042D8  6EBE               	movwf	190,c	;volatile
  1029                           
  1030                           ;mcc_generated_files/pin_manager.c: 63:     LATF = 0x00;
  1031  0042DA  0E00               	movlw	0
  1032  0042DC  6EC3               	movwf	195,c	;volatile
  1033                           
  1034                           ;mcc_generated_files/pin_manager.c: 64:     LATB = 0x00;
  1035  0042DE  0E00               	movlw	0
  1036  0042E0  6EBF               	movwf	191,c	;volatile
  1037                           
  1038                           ;mcc_generated_files/pin_manager.c: 65:     LATC = 0x00;
  1039  0042E2  0E00               	movlw	0
  1040  0042E4  6EC0               	movwf	192,c	;volatile
  1041                           
  1042                           ;mcc_generated_files/pin_manager.c: 70:     TRISE = 0x07;
  1043  0042E6  0E07               	movlw	7
  1044  0042E8  6ECA               	movwf	202,c	;volatile
  1045  0042EA                     
  1046                           ;mcc_generated_files/pin_manager.c: 71:     TRISF = 0xFF;
  1047  0042EA  68CB               	setf	203,c	;volatile
  1048  0042EC                     
  1049                           ;mcc_generated_files/pin_manager.c: 72:     TRISA = 0xFF;
  1050  0042EC  68C6               	setf	198,c	;volatile
  1051                           
  1052                           ;mcc_generated_files/pin_manager.c: 73:     TRISB = 0xFE;
  1053  0042EE  0EFE               	movlw	254
  1054  0042F0  6EC7               	movwf	199,c	;volatile
  1055  0042F2                     
  1056                           ;mcc_generated_files/pin_manager.c: 74:     TRISC = 0xFF;
  1057  0042F2  68C8               	setf	200,c	;volatile
  1058  0042F4                     
  1059                           ;mcc_generated_files/pin_manager.c: 75:     TRISD = 0xFF;
  1060  0042F4  68C9               	setf	201,c	;volatile
  1061  0042F6                     
  1062                           ;mcc_generated_files/pin_manager.c: 80:     ANSELD = 0xFF;
  1063  0042F6  0104               	movlb	4	; () banked
  1064  0042F8  6918               	setf	24,b	;volatile
  1065  0042FA                     
  1066                           ; BSR set to: 4
  1067                           ;mcc_generated_files/pin_manager.c: 81:     ANSELC = 0xFF;
  1068  0042FA  6910               	setf	16,b	;volatile
  1069                           
  1070                           ;mcc_generated_files/pin_manager.c: 82:     ANSELB = 0xF7;
  1071  0042FC  0EF7               	movlw	247
  1072  0042FE  6F08               	movwf	8,b	;volatile
  1073                           
  1074                           ;mcc_generated_files/pin_manager.c: 83:     ANSELE = 0x07;
  1075  004300  0E07               	movlw	7
  1076  004302  6F20               	movwf	32,b	;volatile
  1077  004304                     
  1078                           ; BSR set to: 4
  1079                           ;mcc_generated_files/pin_manager.c: 84:     ANSELF = 0xFF;
  1080  004304  6928               	setf	40,b	;volatile
  1081  004306                     
  1082                           ; BSR set to: 4
  1083                           ;mcc_generated_files/pin_manager.c: 85:     ANSELA = 0xFF;
  1084  004306  6900               	setf	0,b	;volatile
  1085                           
  1086                           ;mcc_generated_files/pin_manager.c: 90:     WPUD = 0x00;
  1087  004308  0E00               	movlw	0
  1088  00430A  6F19               	movwf	25,b	;volatile
  1089                           
  1090                           ;mcc_generated_files/pin_manager.c: 91:     WPUF = 0x00;
  1091  00430C  0E00               	movlw	0
  1092  00430E  6F29               	movwf	41,b	;volatile
  1093                           
  1094                           ;mcc_generated_files/pin_manager.c: 92:     WPUE = 0x00;
  1095  004310  0E00               	movlw	0
  1096  004312  6F21               	movwf	33,b	;volatile
  1097                           
  1098                           ;mcc_generated_files/pin_manager.c: 93:     WPUB = 0x00;
  1099  004314  0E00               	movlw	0
  1100  004316  6F09               	movwf	9,b	;volatile
  1101                           
  1102                           ;mcc_generated_files/pin_manager.c: 94:     WPUA = 0x00;
  1103  004318  0E00               	movlw	0
  1104  00431A  6F01               	movwf	1,b	;volatile
  1105                           
  1106                           ;mcc_generated_files/pin_manager.c: 95:     WPUC = 0x00;
  1107  00431C  0E00               	movlw	0
  1108  00431E  6F11               	movwf	17,b	;volatile
  1109                           
  1110                           ;mcc_generated_files/pin_manager.c: 100:     ODCONE = 0x00;
  1111  004320  0E00               	movlw	0
  1112  004322  6F22               	movwf	34,b	;volatile
  1113                           
  1114                           ;mcc_generated_files/pin_manager.c: 101:     ODCONF = 0x00;
  1115  004324  0E00               	movlw	0
  1116  004326  6F2A               	movwf	42,b	;volatile
  1117                           
  1118                           ;mcc_generated_files/pin_manager.c: 102:     ODCONA = 0x00;
  1119  004328  0E00               	movlw	0
  1120  00432A  6F02               	movwf	2,b	;volatile
  1121                           
  1122                           ;mcc_generated_files/pin_manager.c: 103:     ODCONB = 0x00;
  1123  00432C  0E00               	movlw	0
  1124  00432E  6F0A               	movwf	10,b	;volatile
  1125                           
  1126                           ;mcc_generated_files/pin_manager.c: 104:     ODCONC = 0x00;
  1127  004330  0E00               	movlw	0
  1128  004332  6F12               	movwf	18,b	;volatile
  1129                           
  1130                           ;mcc_generated_files/pin_manager.c: 105:     ODCOND = 0x00;
  1131  004334  0E00               	movlw	0
  1132  004336  6F1A               	movwf	26,b	;volatile
  1133  004338                     
  1134                           ; BSR set to: 4
  1135                           ;mcc_generated_files/pin_manager.c: 110:     SLRCONA = 0xFF;
  1136  004338  6903               	setf	3,b	;volatile
  1137  00433A                     
  1138                           ; BSR set to: 4
  1139                           ;mcc_generated_files/pin_manager.c: 111:     SLRCONB = 0xFF;
  1140  00433A  690B               	setf	11,b	;volatile
  1141  00433C                     
  1142                           ; BSR set to: 4
  1143                           ;mcc_generated_files/pin_manager.c: 112:     SLRCONC = 0xFF;
  1144  00433C  6913               	setf	19,b	;volatile
  1145  00433E                     
  1146                           ; BSR set to: 4
  1147                           ;mcc_generated_files/pin_manager.c: 113:     SLRCOND = 0xFF;
  1148  00433E  691B               	setf	27,b	;volatile
  1149                           
  1150                           ;mcc_generated_files/pin_manager.c: 114:     SLRCONE = 0x07;
  1151  004340  0E07               	movlw	7
  1152  004342  6F23               	movwf	35,b	;volatile
  1153  004344                     
  1154                           ; BSR set to: 4
  1155                           ;mcc_generated_files/pin_manager.c: 115:     SLRCONF = 0xFF;
  1156  004344  692B               	setf	43,b	;volatile
  1157  004346                     
  1158                           ; BSR set to: 4
  1159                           ;mcc_generated_files/pin_manager.c: 120:     INLVLA = 0xFF;
  1160  004346  6904               	setf	4,b	;volatile
  1161  004348                     
  1162                           ; BSR set to: 4
  1163                           ;mcc_generated_files/pin_manager.c: 121:     INLVLB = 0xFF;
  1164  004348  690C               	setf	12,b	;volatile
  1165  00434A                     
  1166                           ; BSR set to: 4
  1167                           ;mcc_generated_files/pin_manager.c: 122:     INLVLC = 0xFF;
  1168  00434A  6914               	setf	20,b	;volatile
  1169  00434C                     
  1170                           ; BSR set to: 4
  1171                           ;mcc_generated_files/pin_manager.c: 123:     INLVLD = 0xFF;
  1172  00434C  691C               	setf	28,b	;volatile
  1173                           
  1174                           ;mcc_generated_files/pin_manager.c: 124:     INLVLE = 0x0F;
  1175  00434E  0E0F               	movlw	15
  1176  004350  6F24               	movwf	36,b	;volatile
  1177  004352                     
  1178                           ; BSR set to: 4
  1179                           ;mcc_generated_files/pin_manager.c: 125:     INLVLF = 0xFF;
  1180  004352  692C               	setf	44,b	;volatile
  1181                           
  1182                           ;mcc_generated_files/pin_manager.c: 134:     RB0PPS = 0x46;
  1183  004354  0E46               	movlw	70
  1184  004356  0102               	movlb	2	; () banked
  1185  004358  6F09               	movwf	9,b	;volatile
  1186                           
  1187                           ;mcc_generated_files/pin_manager.c: 135:     CANRXPPS = 0x0B;
  1188  00435A  0E0B               	movlw	11
  1189  00435C  6F3D               	movwf	61,b	;volatile
  1190  00435E                     
  1191                           ; BSR set to: 2
  1192  00435E  0012               	return		;funcret
  1193  004360                     __end_of_PIN_MANAGER_Initialize:
  1194                           	callstack 0
  1195                           
  1196 ;; *************** function _OSCILLATOR_Initialize *****************
  1197 ;; Defined at:
  1198 ;;		line 60 in file "mcc_generated_files/mcc.c"
  1199 ;; Parameters:    Size  Location     Type
  1200 ;;		None
  1201 ;; Auto vars:     Size  Location     Type
  1202 ;;		None
  1203 ;; Return value:  Size  Location     Type
  1204 ;;                  1    wreg      void 
  1205 ;; Registers used:
  1206 ;;		wreg, status,2
  1207 ;; Tracked objects:
  1208 ;;		On entry : 0/0
  1209 ;;		On exit  : 0/0
  1210 ;;		Unchanged: 0/0
  1211 ;; Data sizes:     COMRAM   BANK5   BANK6   BANK7   BANK8   BANK9  BANK10  BANK11  BANK12  BANK13  BANK14  BANK15  BANK1
      +6  BANK17  BANK18  BANK19  BANK20  BANK21  BANK22  BANK23  BANK24  BANK25  BANK26  BANK27  BANK28  BANK29  BANK30  BANK3
      +1  BANK32  BANK33  BANK34  BANK35  BANK36  BANK37  BANK38  BANK39  BANK40  BANK41  BANK42  BANK43  BANK44  BANK45  BANK4
      +6  BANK47  BANK48  BANK49  BANK50  BANK51  BANK52  BANK53  BANK54  BANK55
  1212 ;;      Params:         0       0       0       0       0       0       0       0       0       0       0       0       
      +0       0       0       0       0       0       0       0       0       0       0       0       0       0       0       
      +0       0       0       0       0       0       0       0       0       0       0       0       0       0       0       
      +0       0       0       0       0       0       0       0       0       0
  1213 ;;      Locals:         0       0       0       0       0       0       0       0       0       0       0       0       
      +0       0       0       0       0       0       0       0       0       0       0       0       0       0       0       
      +0       0       0       0       0       0       0       0       0       0       0       0       0       0       0       
      +0       0       0       0       0       0       0       0       0       0
  1214 ;;      Temps:          0       0       0       0       0       0       0       0       0       0       0       0       
      +0       0       0       0       0       0       0       0       0       0       0       0       0       0       0       
      +0       0       0       0       0       0       0       0       0       0       0       0       0       0       0       
      +0       0       0       0       0       0       0       0       0       0
  1215 ;;      Totals:         0       0       0       0       0       0       0       0       0       0       0       0       
      +0       0       0       0       0       0       0       0       0       0       0       0       0       0       0       
      +0       0       0       0       0       0       0       0       0       0       0       0       0       0       0       
      +0       0       0       0       0       0       0       0       0       0
  1216 ;;Total ram usage:        0 bytes
  1217 ;; Hardware stack levels used:    1
  1218 ;; Hardware stack levels required when called:    7
  1219 ;; This function calls:
  1220 ;;		Nothing
  1221 ;; This function is called by:
  1222 ;;		_SYSTEM_Initialize
  1223 ;; This function uses a non-reentrant model
  1224 ;;
  1225                           
  1226                           	psect	text6
  1227  00476C                     __ptext6:
  1228                           	callstack 0
  1229  00476C                     _OSCILLATOR_Initialize:
  1230                           	callstack 119
  1231  00476C                     
  1232                           ;mcc_generated_files/mcc.c: 63:     OSCCON1 = 0x20;
  1233  00476C  0E20               	movlw	32
  1234  00476E  0100               	movlb	0	; () banked
  1235  004770  6FAD               	movwf	173,b	;volatile
  1236                           
  1237                           ;mcc_generated_files/mcc.c: 65:     OSCCON3 = 0x00;
  1238  004772  0E00               	movlw	0
  1239  004774  6FAF               	movwf	175,b	;volatile
  1240                           
  1241                           ;mcc_generated_files/mcc.c: 67:     OSCEN = 0x01;
  1242  004776  0E01               	movlw	1
  1243  004778  6FB3               	movwf	179,b	;volatile
  1244                           
  1245                           ;mcc_generated_files/mcc.c: 69:     OSCFRQ = 0x02;
  1246  00477A  0E02               	movlw	2
  1247  00477C  6FB1               	movwf	177,b	;volatile
  1248                           
  1249                           ;mcc_generated_files/mcc.c: 71:     OSCTUNE = 0x00;
  1250  00477E  0E00               	movlw	0
  1251  004780  6FB0               	movwf	176,b	;volatile
  1252  004782                     l485:
  1253                           
  1254                           ; BSR set to: 0
  1255                           ;mcc_generated_files/mcc.c: 73:     while(PLLR == 0)
  1256  004782  A1B2               	btfss	178,0,b	;volatile
  1257  004784  EFC6  F023         	goto	u1591
  1258  004788  EFC8  F023         	goto	u1590
  1259  00478C                     u1591:
  1260  00478C  EFC1  F023         	goto	l485
  1261  004790                     u1590:
  1262  004790                     
  1263                           ; BSR set to: 0
  1264  004790  0012               	return		;funcret
  1265  004792                     __end_of_OSCILLATOR_Initialize:
  1266                           	callstack 0
  1267                           
  1268 ;; *************** function _INTERRUPT_Initialize *****************
  1269 ;; Defined at:
  1270 ;;		line 52 in file "mcc_generated_files/interrupt_manager.c"
  1271 ;; Parameters:    Size  Location     Type
  1272 ;;		None
  1273 ;; Auto vars:     Size  Location     Type
  1274 ;;		None
  1275 ;; Return value:  Size  Location     Type
  1276 ;;                  1    wreg      void 
  1277 ;; Registers used:
  1278 ;;		None
  1279 ;; Tracked objects:
  1280 ;;		On entry : 0/0
  1281 ;;		On exit  : 0/0
  1282 ;;		Unchanged: 0/0
  1283 ;; Data sizes:     COMRAM   BANK5   BANK6   BANK7   BANK8   BANK9  BANK10  BANK11  BANK12  BANK13  BANK14  BANK15  BANK1
      +6  BANK17  BANK18  BANK19  BANK20  BANK21  BANK22  BANK23  BANK24  BANK25  BANK26  BANK27  BANK28  BANK29  BANK30  BANK3
      +1  BANK32  BANK33  BANK34  BANK35  BANK36  BANK37  BANK38  BANK39  BANK40  BANK41  BANK42  BANK43  BANK44  BANK45  BANK4
      +6  BANK47  BANK48  BANK49  BANK50  BANK51  BANK52  BANK53  BANK54  BANK55
  1284 ;;      Params:         0       0       0       0       0       0       0       0       0       0       0       0       
      +0       0       0       0       0       0       0       0       0       0       0       0       0       0       0       
      +0       0       0       0       0       0       0       0       0       0       0       0       0       0       0       
      +0       0       0       0       0       0       0       0       0       0
  1285 ;;      Locals:         0       0       0       0       0       0       0       0       0       0       0       0       
      +0       0       0       0       0       0       0       0       0       0       0       0       0       0       0       
      +0       0       0       0       0       0       0       0       0       0       0       0       0       0       0       
      +0       0       0       0       0       0       0       0       0       0
  1286 ;;      Temps:          0       0       0       0       0       0       0       0       0       0       0       0       
      +0       0       0       0       0       0       0       0       0       0       0       0       0       0       0       
      +0       0       0       0       0       0       0       0       0       0       0       0       0       0       0       
      +0       0       0       0       0       0       0       0       0       0
  1287 ;;      Totals:         0       0       0       0       0       0       0       0       0       0       0       0       
      +0       0       0       0       0       0       0       0       0       0       0       0       0       0       0       
      +0       0       0       0       0       0       0       0       0       0       0       0       0       0       0       
      +0       0       0       0       0       0       0       0       0       0
  1288 ;;Total ram usage:        0 bytes
  1289 ;; Hardware stack levels used:    1
  1290 ;; Hardware stack levels required when called:    7
  1291 ;; This function calls:
  1292 ;;		Nothing
  1293 ;; This function is called by:
  1294 ;;		_SYSTEM_Initialize
  1295 ;; This function uses a non-reentrant model
  1296 ;;
  1297                           
  1298                           	psect	text7
  1299  00487A                     __ptext7:
  1300                           	callstack 0
  1301  00487A                     _INTERRUPT_Initialize:
  1302                           	callstack 119
  1303  00487A                     
  1304                           ;mcc_generated_files/interrupt_manager.c: 55:     INTCON0bits.IPEN = 0;
  1305  00487A  9AD6               	bcf	214,5,c	;volatile
  1306  00487C  0012               	return		;funcret
  1307  00487E                     __end_of_INTERRUPT_Initialize:
  1308                           	callstack 0
  1309                           
  1310 ;; *************** function _CAN1_Initialize *****************
  1311 ;; Defined at:
  1312 ;;		line 323 in file "mcc_generated_files/can1.c"
  1313 ;; Parameters:    Size  Location     Type
  1314 ;;		None
  1315 ;; Auto vars:     Size  Location     Type
  1316 ;;		None
  1317 ;; Return value:  Size  Location     Type
  1318 ;;                  1    wreg      void 
  1319 ;; Registers used:
  1320 ;;		wreg, fsr2l, fsr2h, status,2, status,0, prodl, prodh, cstack
  1321 ;; Tracked objects:
  1322 ;;		On entry : 0/0
  1323 ;;		On exit  : 0/0
  1324 ;;		Unchanged: 0/0
  1325 ;; Data sizes:     COMRAM   BANK5   BANK6   BANK7   BANK8   BANK9  BANK10  BANK11  BANK12  BANK13  BANK14  BANK15  BANK1
      +6  BANK17  BANK18  BANK19  BANK20  BANK21  BANK22  BANK23  BANK24  BANK25  BANK26  BANK27  BANK28  BANK29  BANK30  BANK3
      +1  BANK32  BANK33  BANK34  BANK35  BANK36  BANK37  BANK38  BANK39  BANK40  BANK41  BANK42  BANK43  BANK44  BANK45  BANK4
      +6  BANK47  BANK48  BANK49  BANK50  BANK51  BANK52  BANK53  BANK54  BANK55
  1326 ;;      Params:         0       0       0       0       0       0       0       0       0       0       0       0       
      +0       0       0       0       0       0       0       0       0       0       0       0       0       0       0       
      +0       0       0       0       0       0       0       0       0       0       0       0       0       0       0       
      +0       0       0       0       0       0       0       0       0       0
  1327 ;;      Locals:         0       0       0       0       0       0       0       0       0       0       0       0       
      +0       0       0       0       0       0       0       0       0       0       0       0       0       0       0       
      +0       0       0       0       0       0       0       0       0       0       0       0       0       0       0       
      +0       0       0       0       0       0       0       0       0       0
  1328 ;;      Temps:          0       0       0       0       0       0       0       0       0       0       0       0       
      +0       0       0       0       0       0       0       0       0       0       0       0       0       0       0       
      +0       0       0       0       0       0       0       0       0       0       0       0       0       0       0       
      +0       0       0       0       0       0       0       0       0       0
  1329 ;;      Totals:         0       0       0       0       0       0       0       0       0       0       0       0       
      +0       0       0       0       0       0       0       0       0       0       0       0       0       0       0       
      +0       0       0       0       0       0       0       0       0       0       0       0       0       0       0       
      +0       0       0       0       0       0       0       0       0       0
  1330 ;;Total ram usage:        0 bytes
  1331 ;; Hardware stack levels used:    1
  1332 ;; Hardware stack levels required when called:    9
  1333 ;; This function calls:
  1334 ;;		_CAN1_BitRateConfiguration
  1335 ;;		_CAN1_OperationModeSet
  1336 ;;		_CAN1_RX_FIFO_Configuration
  1337 ;;		_CAN1_RX_FIFO_FilterMaskConfiguration
  1338 ;;		_CAN1_RX_FIFO_ResetInfo
  1339 ;;		_CAN1_TX_FIFO_Configuration
  1340 ;; This function is called by:
  1341 ;;		_SYSTEM_Initialize
  1342 ;; This function uses a non-reentrant model
  1343 ;;
  1344                           
  1345                           	psect	text8
  1346  004546                     __ptext8:
  1347                           	callstack 0
  1348  004546                     _CAN1_Initialize:
  1349                           	callstack 117
  1350  004546                     
  1351                           ;mcc_generated_files/can1.c: 326:     C1CONHbits.ON = 1;
  1352  004546  0101               	movlb	1	; () banked
  1353  004548  8F01               	bsf	1,7,b	;volatile
  1354  00454A                     
  1355                           ; BSR set to: 1
  1356                           ;mcc_generated_files/can1.c: 328:     if (CAN_OP_MODE_REQUEST_SUCCESS == CAN1_OperationM
      +                          odeSet(CAN_CONFIGURATION_MODE))
  1357  00454A  0E04               	movlw	4
  1358  00454C  ECD1  F020         	call	_CAN1_OperationModeSet
  1359  004550  0900               	iorlw	0
  1360  004552  A4D8               	btfss	status,2,c
  1361  004554  EFAE  F022         	goto	u1561
  1362  004558  EFB0  F022         	goto	u1560
  1363  00455C                     u1561:
  1364  00455C  EFCC  F022         	goto	l159
  1365  004560                     u1560:
  1366  004560                     
  1367                           ;mcc_generated_files/can1.c: 329:     {;mcc_generated_files/can1.c: 331:         C1FIFOB
      +                          A = 0x3800;
  1368  004560  0E00               	movlw	0
  1369  004562  0101               	movlb	1	; () banked
  1370  004564  6F4C               	movwf	76,b	;volatile
  1371  004566  0E38               	movlw	56
  1372  004568  6F4D               	movwf	77,b	;volatile
  1373  00456A  0E00               	movlw	0
  1374  00456C  6F4E               	movwf	78,b	;volatile
  1375  00456E  0E00               	movlw	0
  1376  004570  6F4F               	movwf	79,b	;volatile
  1377                           
  1378                           ;mcc_generated_files/can1.c: 334:         C1CONL = 0x60;
  1379  004572  0E60               	movlw	96
  1380  004574  6F00               	movwf	0,b	;volatile
  1381                           
  1382                           ;mcc_generated_files/can1.c: 337:         C1CONH = 0x87;
  1383  004576  0E87               	movlw	135
  1384  004578  6F01               	movwf	1,b	;volatile
  1385                           
  1386                           ;mcc_generated_files/can1.c: 340:         C1CONU = 0x10;
  1387  00457A  0E10               	movlw	16
  1388  00457C  6F02               	movwf	2,b	;volatile
  1389  00457E                     
  1390                           ; BSR set to: 1
  1391                           ;mcc_generated_files/can1.c: 342:         CAN1_BitRateConfiguration();
  1392  00457E  EC62  F023         	call	_CAN1_BitRateConfiguration	;wreg free
  1393  004582                     
  1394                           ;mcc_generated_files/can1.c: 343:         CAN1_TX_FIFO_Configuration();
  1395  004582  EC10  F024         	call	_CAN1_TX_FIFO_Configuration	;wreg free
  1396  004586                     
  1397                           ;mcc_generated_files/can1.c: 344:         CAN1_RX_FIFO_Configuration();
  1398  004586  EC4B  F023         	call	_CAN1_RX_FIFO_Configuration	;wreg free
  1399  00458A                     
  1400                           ;mcc_generated_files/can1.c: 345:         CAN1_RX_FIFO_FilterMaskConfiguration();
  1401  00458A  ECC9  F023         	call	_CAN1_RX_FIFO_FilterMaskConfiguration	;wreg free
  1402  00458E                     
  1403                           ;mcc_generated_files/can1.c: 346:         CAN1_RX_FIFO_ResetInfo();
  1404  00458E  EC34  F023         	call	_CAN1_RX_FIFO_ResetInfo	;wreg free
  1405  004592                     
  1406                           ;mcc_generated_files/can1.c: 347:         CAN1_OperationModeSet(CAN_NORMAL_FD_MODE);
  1407  004592  0E00               	movlw	0
  1408  004594  ECD1  F020         	call	_CAN1_OperationModeSet
  1409  004598                     l159:
  1410  004598  0012               	return		;funcret
  1411  00459A                     __end_of_CAN1_Initialize:
  1412                           	callstack 0
  1413                           
  1414 ;; *************** function _CAN1_TX_FIFO_Configuration *****************
  1415 ;; Defined at:
  1416 ;;		line 273 in file "mcc_generated_files/can1.c"
  1417 ;; Parameters:    Size  Location     Type
  1418 ;;		None
  1419 ;; Auto vars:     Size  Location     Type
  1420 ;;		None
  1421 ;; Return value:  Size  Location     Type
  1422 ;;                  1    wreg      void 
  1423 ;; Registers used:
  1424 ;;		wreg, status,2
  1425 ;; Tracked objects:
  1426 ;;		On entry : 0/0
  1427 ;;		On exit  : 0/0
  1428 ;;		Unchanged: 0/0
  1429 ;; Data sizes:     COMRAM   BANK5   BANK6   BANK7   BANK8   BANK9  BANK10  BANK11  BANK12  BANK13  BANK14  BANK15  BANK1
      +6  BANK17  BANK18  BANK19  BANK20  BANK21  BANK22  BANK23  BANK24  BANK25  BANK26  BANK27  BANK28  BANK29  BANK30  BANK3
      +1  BANK32  BANK33  BANK34  BANK35  BANK36  BANK37  BANK38  BANK39  BANK40  BANK41  BANK42  BANK43  BANK44  BANK45  BANK4
      +6  BANK47  BANK48  BANK49  BANK50  BANK51  BANK52  BANK53  BANK54  BANK55
  1430 ;;      Params:         0       0       0       0       0       0       0       0       0       0       0       0       
      +0       0       0       0       0       0       0       0       0       0       0       0       0       0       0       
      +0       0       0       0       0       0       0       0       0       0       0       0       0       0       0       
      +0       0       0       0       0       0       0       0       0       0
  1431 ;;      Locals:         0       0       0       0       0       0       0       0       0       0       0       0       
      +0       0       0       0       0       0       0       0       0       0       0       0       0       0       0       
      +0       0       0       0       0       0       0       0       0       0       0       0       0       0       0       
      +0       0       0       0       0       0       0       0       0       0
  1432 ;;      Temps:          0       0       0       0       0       0       0       0       0       0       0       0       
      +0       0       0       0       0       0       0       0       0       0       0       0       0       0       0       
      +0       0       0       0       0       0       0       0       0       0       0       0       0       0       0       
      +0       0       0       0       0       0       0       0       0       0
  1433 ;;      Totals:         0       0       0       0       0       0       0       0       0       0       0       0       
      +0       0       0       0       0       0       0       0       0       0       0       0       0       0       0       
      +0       0       0       0       0       0       0       0       0       0       0       0       0       0       0       
      +0       0       0       0       0       0       0       0       0       0
  1434 ;;Total ram usage:        0 bytes
  1435 ;; Hardware stack levels used:    1
  1436 ;; Hardware stack levels required when called:    7
  1437 ;; This function calls:
  1438 ;;		Nothing
  1439 ;; This function is called by:
  1440 ;;		_CAN1_Initialize
  1441 ;; This function uses a non-reentrant model
  1442 ;;
  1443                           
  1444                           	psect	text9
  1445  004820                     __ptext9:
  1446                           	callstack 0
  1447  004820                     _CAN1_TX_FIFO_Configuration:
  1448                           	callstack 118
  1449  004820                     
  1450                           ;mcc_generated_files/can1.c: 276:     C1TXQCONL = 0x00;
  1451  004820  0E00               	movlw	0
  1452  004822  0101               	movlb	1	; () banked
  1453  004824  6F50               	movwf	80,b	;volatile
  1454                           
  1455                           ;mcc_generated_files/can1.c: 279:     C1TXQCONH = 0x04;
  1456  004826  0E04               	movlw	4
  1457  004828  6F51               	movwf	81,b	;volatile
  1458                           
  1459                           ;mcc_generated_files/can1.c: 282:     C1TXQCONU = 0x60;
  1460  00482A  0E60               	movlw	96
  1461  00482C  6F52               	movwf	82,b	;volatile
  1462                           
  1463                           ;mcc_generated_files/can1.c: 285:     C1TXQCONT = 0x01;
  1464  00482E  0E01               	movlw	1
  1465  004830  6F53               	movwf	83,b	;volatile
  1466  004832                     
  1467                           ; BSR set to: 1
  1468  004832  0012               	return		;funcret
  1469  004834                     __end_of_CAN1_TX_FIFO_Configuration:
  1470                           	callstack 0
  1471                           
  1472 ;; *************** function _CAN1_RX_FIFO_ResetInfo *****************
  1473 ;; Defined at:
  1474 ;;		line 226 in file "mcc_generated_files/can1.c"
  1475 ;; Parameters:    Size  Location     Type
  1476 ;;		None
  1477 ;; Auto vars:     Size  Location     Type
  1478 ;;  index           1    0[BANK5 ] unsigned char 
  1479 ;; Return value:  Size  Location     Type
  1480 ;;                  1    wreg      void 
  1481 ;; Registers used:
  1482 ;;		wreg, fsr2l, fsr2h, status,2, status,0, prodl, prodh
  1483 ;; Tracked objects:
  1484 ;;		On entry : 0/0
  1485 ;;		On exit  : 0/0
  1486 ;;		Unchanged: 0/0
  1487 ;; Data sizes:     COMRAM   BANK5   BANK6   BANK7   BANK8   BANK9  BANK10  BANK11  BANK12  BANK13  BANK14  BANK15  BANK1
      +6  BANK17  BANK18  BANK19  BANK20  BANK21  BANK22  BANK23  BANK24  BANK25  BANK26  BANK27  BANK28  BANK29  BANK30  BANK3
      +1  BANK32  BANK33  BANK34  BANK35  BANK36  BANK37  BANK38  BANK39  BANK40  BANK41  BANK42  BANK43  BANK44  BANK45  BANK4
      +6  BANK47  BANK48  BANK49  BANK50  BANK51  BANK52  BANK53  BANK54  BANK55
  1488 ;;      Params:         0       0       0       0       0       0       0       0       0       0       0       0       
      +0       0       0       0       0       0       0       0       0       0       0       0       0       0       0       
      +0       0       0       0       0       0       0       0       0       0       0       0       0       0       0       
      +0       0       0       0       0       0       0       0       0       0
  1489 ;;      Locals:         0       1       0       0       0       0       0       0       0       0       0       0       
      +0       0       0       0       0       0       0       0       0       0       0       0       0       0       0       
      +0       0       0       0       0       0       0       0       0       0       0       0       0       0       0       
      +0       0       0       0       0       0       0       0       0       0
  1490 ;;      Temps:          0       0       0       0       0       0       0       0       0       0       0       0       
      +0       0       0       0       0       0       0       0       0       0       0       0       0       0       0       
      +0       0       0       0       0       0       0       0       0       0       0       0       0       0       0       
      +0       0       0       0       0       0       0       0       0       0
  1491 ;;      Totals:         0       1       0       0       0       0       0       0       0       0       0       0       
      +0       0       0       0       0       0       0       0       0       0       0       0       0       0       0       
      +0       0       0       0       0       0       0       0       0       0       0       0       0       0       0       
      +0       0       0       0       0       0       0       0       0       0
  1492 ;;Total ram usage:        1 bytes
  1493 ;; Hardware stack levels used:    1
  1494 ;; Hardware stack levels required when called:    7
  1495 ;; This function calls:
  1496 ;;		Nothing
  1497 ;; This function is called by:
  1498 ;;		_CAN1_Initialize
  1499 ;; This function uses a non-reentrant model
  1500 ;;
  1501                           
  1502                           	psect	text10
  1503  004668                     __ptext10:
  1504                           	callstack 0
  1505  004668                     _CAN1_RX_FIFO_ResetInfo:
  1506                           	callstack 118
  1507  004668                     
  1508                           ;mcc_generated_files/can1.c: 228:     uint8_t index;;mcc_generated_files/can1.c: 230:   
      +                            for (index = 0; index < (1U); index++)
  1509  004668  0E00               	movlw	0
  1510  00466A  0105               	movlb	5	; () banked
  1511  00466C  6F60               	movwf	CAN1_RX_FIFO_ResetInfo@index& (0+255),b
  1512  00466E                     l2199:
  1513                           
  1514                           ; BSR set to: 5
  1515                           ;mcc_generated_files/can1.c: 231:     {;mcc_generated_files/can1.c: 232:         rxFifos
      +                          [index].fifoHead = 0;
  1516  00466E  5160               	movf	CAN1_RX_FIFO_ResetInfo@index& (0+255),w,b
  1517  004670  0D02               	mullw	2
  1518  004672  0E64               	movlw	low (_rxFifos+1)
  1519  004674  24F3               	addwf	243,w,c
  1520  004676  6ED9               	movwf	fsr2l,c
  1521  004678  0E05               	movlw	high (_rxFifos+1)
  1522  00467A  20F4               	addwfc	prodh,w,c
  1523  00467C  6EDA               	movwf	fsr2h,c
  1524  00467E  0E00               	movlw	0
  1525  004680  6EDF               	movwf	indf2,c
  1526  004682                     
  1527                           ; BSR set to: 5
  1528                           ;mcc_generated_files/can1.c: 233:     }
  1529  004682  2B60               	incf	CAN1_RX_FIFO_ResetInfo@index& (0+255),f,b
  1530  004684                     
  1531                           ; BSR set to: 5
  1532  004684  5160               	movf	CAN1_RX_FIFO_ResetInfo@index& (0+255),w,b
  1533  004686  B4D8               	btfsc	status,2,c
  1534  004688  EF48  F023         	goto	u1371
  1535  00468C  EF4A  F023         	goto	u1370
  1536  004690                     u1371:
  1537  004690  EF37  F023         	goto	l2199
  1538  004694                     u1370:
  1539  004694                     
  1540                           ; BSR set to: 5
  1541  004694  0012               	return		;funcret
  1542  004696                     __end_of_CAN1_RX_FIFO_ResetInfo:
  1543                           	callstack 0
  1544                           
  1545 ;; *************** function _CAN1_RX_FIFO_FilterMaskConfiguration *****************
  1546 ;; Defined at:
  1547 ;;		line 258 in file "mcc_generated_files/can1.c"
  1548 ;; Parameters:    Size  Location     Type
  1549 ;;		None
  1550 ;; Auto vars:     Size  Location     Type
  1551 ;;		None
  1552 ;; Return value:  Size  Location     Type
  1553 ;;                  1    wreg      void 
  1554 ;; Registers used:
  1555 ;;		wreg, status,2
  1556 ;; Tracked objects:
  1557 ;;		On entry : 0/0
  1558 ;;		On exit  : 0/0
  1559 ;;		Unchanged: 0/0
  1560 ;; Data sizes:     COMRAM   BANK5   BANK6   BANK7   BANK8   BANK9  BANK10  BANK11  BANK12  BANK13  BANK14  BANK15  BANK1
      +6  BANK17  BANK18  BANK19  BANK20  BANK21  BANK22  BANK23  BANK24  BANK25  BANK26  BANK27  BANK28  BANK29  BANK30  BANK3
      +1  BANK32  BANK33  BANK34  BANK35  BANK36  BANK37  BANK38  BANK39  BANK40  BANK41  BANK42  BANK43  BANK44  BANK45  BANK4
      +6  BANK47  BANK48  BANK49  BANK50  BANK51  BANK52  BANK53  BANK54  BANK55
  1561 ;;      Params:         0       0       0       0       0       0       0       0       0       0       0       0       
      +0       0       0       0       0       0       0       0       0       0       0       0       0       0       0       
      +0       0       0       0       0       0       0       0       0       0       0       0       0       0       0       
      +0       0       0       0       0       0       0       0       0       0
  1562 ;;      Locals:         0       0       0       0       0       0       0       0       0       0       0       0       
      +0       0       0       0       0       0       0       0       0       0       0       0       0       0       0       
      +0       0       0       0       0       0       0       0       0       0       0       0       0       0       0       
      +0       0       0       0       0       0       0       0       0       0
  1563 ;;      Temps:          0       0       0       0       0       0       0       0       0       0       0       0       
      +0       0       0       0       0       0       0       0       0       0       0       0       0       0       0       
      +0       0       0       0       0       0       0       0       0       0       0       0       0       0       0       
      +0       0       0       0       0       0       0       0       0       0
  1564 ;;      Totals:         0       0       0       0       0       0       0       0       0       0       0       0       
      +0       0       0       0       0       0       0       0       0       0       0       0       0       0       0       
      +0       0       0       0       0       0       0       0       0       0       0       0       0       0       0       
      +0       0       0       0       0       0       0       0       0       0
  1565 ;;Total ram usage:        0 bytes
  1566 ;; Hardware stack levels used:    1
  1567 ;; Hardware stack levels required when called:    7
  1568 ;; This function calls:
  1569 ;;		Nothing
  1570 ;; This function is called by:
  1571 ;;		_CAN1_Initialize
  1572 ;; This function uses a non-reentrant model
  1573 ;;
  1574                           
  1575                           	psect	text11
  1576  004792                     __ptext11:
  1577                           	callstack 0
  1578  004792                     _CAN1_RX_FIFO_FilterMaskConfiguration:
  1579                           	callstack 118
  1580  004792                     
  1581                           ;mcc_generated_files/can1.c: 261:     C1FLTOBJ0L = 0xDF;
  1582  004792  0EDF               	movlw	223
  1583  004794  0101               	movlb	1	; () banked
  1584  004796  6F8C               	movwf	140,b	;volatile
  1585                           
  1586                           ;mcc_generated_files/can1.c: 262:     C1FLTOBJ0H = 0x07;
  1587  004798  0E07               	movlw	7
  1588  00479A  6F8D               	movwf	141,b	;volatile
  1589                           
  1590                           ;mcc_generated_files/can1.c: 263:     C1FLTOBJ0U = 0x00;
  1591  00479C  0E00               	movlw	0
  1592  00479E  6F8E               	movwf	142,b	;volatile
  1593                           
  1594                           ;mcc_generated_files/can1.c: 264:     C1FLTOBJ0T = 0x00;
  1595  0047A0  0E00               	movlw	0
  1596  0047A2  6F8F               	movwf	143,b	;volatile
  1597  0047A4                     
  1598                           ; BSR set to: 1
  1599                           ;mcc_generated_files/can1.c: 265:     C1MASK0L = 0xFF;
  1600  0047A4  6990               	setf	144,b	;volatile
  1601                           
  1602                           ;mcc_generated_files/can1.c: 266:     C1MASK0H = 0x07;
  1603  0047A6  0E07               	movlw	7
  1604  0047A8  6F91               	movwf	145,b	;volatile
  1605                           
  1606                           ;mcc_generated_files/can1.c: 267:     C1MASK0U = 0x00;
  1607  0047AA  0E00               	movlw	0
  1608  0047AC  6F92               	movwf	146,b	;volatile
  1609                           
  1610                           ;mcc_generated_files/can1.c: 268:     C1MASK0T = 0x40;
  1611  0047AE  0E40               	movlw	64
  1612  0047B0  6F93               	movwf	147,b	;volatile
  1613                           
  1614                           ;mcc_generated_files/can1.c: 269:     C1FLTCON0L = 0x81;
  1615  0047B2  0E81               	movlw	129
  1616  0047B4  6F80               	movwf	128,b	;volatile
  1617  0047B6                     
  1618                           ; BSR set to: 1
  1619  0047B6  0012               	return		;funcret
  1620  0047B8                     __end_of_CAN1_RX_FIFO_FilterMaskConfiguration:
  1621                           	callstack 0
  1622                           
  1623 ;; *************** function _CAN1_RX_FIFO_Configuration *****************
  1624 ;; Defined at:
  1625 ;;		line 236 in file "mcc_generated_files/can1.c"
  1626 ;; Parameters:    Size  Location     Type
  1627 ;;		None
  1628 ;; Auto vars:     Size  Location     Type
  1629 ;;		None
  1630 ;; Return value:  Size  Location     Type
  1631 ;;                  1    wreg      void 
  1632 ;; Registers used:
  1633 ;;		wreg, status,2, status,0, cstack
  1634 ;; Tracked objects:
  1635 ;;		On entry : 0/0
  1636 ;;		On exit  : 0/0
  1637 ;;		Unchanged: 0/0
  1638 ;; Data sizes:     COMRAM   BANK5   BANK6   BANK7   BANK8   BANK9  BANK10  BANK11  BANK12  BANK13  BANK14  BANK15  BANK1
      +6  BANK17  BANK18  BANK19  BANK20  BANK21  BANK22  BANK23  BANK24  BANK25  BANK26  BANK27  BANK28  BANK29  BANK30  BANK3
      +1  BANK32  BANK33  BANK34  BANK35  BANK36  BANK37  BANK38  BANK39  BANK40  BANK41  BANK42  BANK43  BANK44  BANK45  BANK4
      +6  BANK47  BANK48  BANK49  BANK50  BANK51  BANK52  BANK53  BANK54  BANK55
  1639 ;;      Params:         0       0       0       0       0       0       0       0       0       0       0       0       
      +0       0       0       0       0       0       0       0       0       0       0       0       0       0       0       
      +0       0       0       0       0       0       0       0       0       0       0       0       0       0       0       
      +0       0       0       0       0       0       0       0       0       0
  1640 ;;      Locals:         0       0       0       0       0       0       0       0       0       0       0       0       
      +0       0       0       0       0       0       0       0       0       0       0       0       0       0       0       
      +0       0       0       0       0       0       0       0       0       0       0       0       0       0       0       
      +0       0       0       0       0       0       0       0       0       0
  1641 ;;      Temps:          0       0       0       0       0       0       0       0       0       0       0       0       
      +0       0       0       0       0       0       0       0       0       0       0       0       0       0       0       
      +0       0       0       0       0       0       0       0       0       0       0       0       0       0       0       
      +0       0       0       0       0       0       0       0       0       0
  1642 ;;      Totals:         0       0       0       0       0       0       0       0       0       0       0       0       
      +0       0       0       0       0       0       0       0       0       0       0       0       0       0       0       
      +0       0       0       0       0       0       0       0       0       0       0       0       0       0       0       
      +0       0       0       0       0       0       0       0       0       0
  1643 ;;Total ram usage:        0 bytes
  1644 ;; Hardware stack levels used:    1
  1645 ;; Hardware stack levels required when called:    8
  1646 ;; This function calls:
  1647 ;;		_CAN1_SetFIFO1NotEmptyHandler
  1648 ;; This function is called by:
  1649 ;;		_CAN1_Initialize
  1650 ;; This function uses a non-reentrant model
  1651 ;;
  1652                           
  1653                           	psect	text12
  1654  004696                     __ptext12:
  1655                           	callstack 0
  1656  004696                     _CAN1_RX_FIFO_Configuration:
  1657                           	callstack 117
  1658  004696                     
  1659                           ;mcc_generated_files/can1.c: 239:     C1FIFOCON1L = 0x01;
  1660  004696  0E01               	movlw	1
  1661  004698  0101               	movlb	1	; () banked
  1662  00469A  6F5C               	movwf	92,b	;volatile
  1663                           
  1664                           ;mcc_generated_files/can1.c: 242:     C1FIFOCON1H = 0x04;
  1665  00469C  0E04               	movlw	4
  1666  00469E  6F5D               	movwf	93,b	;volatile
  1667                           
  1668                           ;mcc_generated_files/can1.c: 245:     C1FIFOCON1U = 0x60;
  1669  0046A0  0E60               	movlw	96
  1670  0046A2  6F5E               	movwf	94,b	;volatile
  1671                           
  1672                           ;mcc_generated_files/can1.c: 248:     C1FIFOCON1T = 0x03;
  1673  0046A4  0E03               	movlw	3
  1674  0046A6  6F5F               	movwf	95,b	;volatile
  1675  0046A8                     
  1676                           ; BSR set to: 1
  1677                           ;mcc_generated_files/can1.c: 250:     CAN1_SetFIFO1NotEmptyHandler(DefaultFIFO1NotEmptyH
      +                          andler);
  1678  0046A8  0E9A               	movlw	low _DefaultFIFO1NotEmptyHandler
  1679  0046AA  0105               	movlb	5	; () banked
  1680  0046AC  6F60               	movwf	CAN1_SetFIFO1NotEmptyHandler@handler& (0+255),b
  1681  0046AE  0E3C               	movlw	high _DefaultFIFO1NotEmptyHandler
  1682  0046B0  6F61               	movwf	(CAN1_SetFIFO1NotEmptyHandler@handler+1)& (0+255),b
  1683  0046B2  0E00               	movlw	low (_DefaultFIFO1NotEmptyHandler shr (0+16))
  1684  0046B4  6F62               	movwf	(CAN1_SetFIFO1NotEmptyHandler@handler+2)& (0+255),b
  1685  0046B6  EC28  F024         	call	_CAN1_SetFIFO1NotEmptyHandler	;wreg free
  1686  0046BA                     
  1687                           ;mcc_generated_files/can1.c: 252:     C1INTUbits.RXIE = 1;
  1688  0046BA  0101               	movlb	1	; () banked
  1689  0046BC  831E               	bsf	30,1,b	;volatile
  1690  0046BE                     
  1691                           ; BSR set to: 1
  1692                           ;mcc_generated_files/can1.c: 254:     PIR4bits.CANRXIF = 0;
  1693  0046BE  98B2               	bcf	178,4,c	;volatile
  1694  0046C0                     
  1695                           ; BSR set to: 1
  1696                           ;mcc_generated_files/can1.c: 255:     PIE4bits.CANRXIE = 1;
  1697  0046C0  88A2               	bsf	162,4,c	;volatile
  1698  0046C2                     
  1699                           ; BSR set to: 1
  1700  0046C2  0012               	return		;funcret
  1701  0046C4                     __end_of_CAN1_RX_FIFO_Configuration:
  1702                           	callstack 0
  1703                           
  1704 ;; *************** function _CAN1_SetFIFO1NotEmptyHandler *****************
  1705 ;; Defined at:
  1706 ;;		line 697 in file "mcc_generated_files/can1.c"
  1707 ;; Parameters:    Size  Location     Type
  1708 ;;  handler         3    0[BANK5 ] PTR FTN()void 
  1709 ;;		 -> DefaultFIFO1NotEmptyHandler(1), 
  1710 ;; Auto vars:     Size  Location     Type
  1711 ;;		None
  1712 ;; Return value:  Size  Location     Type
  1713 ;;                  1    wreg      void 
  1714 ;; Registers used:
  1715 ;;		wreg, status,2, status,0
  1716 ;; Tracked objects:
  1717 ;;		On entry : 0/0
  1718 ;;		On exit  : 0/0
  1719 ;;		Unchanged: 0/0
  1720 ;; Data sizes:     COMRAM   BANK5   BANK6   BANK7   BANK8   BANK9  BANK10  BANK11  BANK12  BANK13  BANK14  BANK15  BANK1
      +6  BANK17  BANK18  BANK19  BANK20  BANK21  BANK22  BANK23  BANK24  BANK25  BANK26  BANK27  BANK28  BANK29  BANK30  BANK3
      +1  BANK32  BANK33  BANK34  BANK35  BANK36  BANK37  BANK38  BANK39  BANK40  BANK41  BANK42  BANK43  BANK44  BANK45  BANK4
      +6  BANK47  BANK48  BANK49  BANK50  BANK51  BANK52  BANK53  BANK54  BANK55
  1721 ;;      Params:         0       3       0       0       0       0       0       0       0       0       0       0       
      +0       0       0       0       0       0       0       0       0       0       0       0       0       0       0       
      +0       0       0       0       0       0       0       0       0       0       0       0       0       0       0       
      +0       0       0       0       0       0       0       0       0       0
  1722 ;;      Locals:         0       0       0       0       0       0       0       0       0       0       0       0       
      +0       0       0       0       0       0       0       0       0       0       0       0       0       0       0       
      +0       0       0       0       0       0       0       0       0       0       0       0       0       0       0       
      +0       0       0       0       0       0       0       0       0       0
  1723 ;;      Temps:          0       0       0       0       0       0       0       0       0       0       0       0       
      +0       0       0       0       0       0       0       0       0       0       0       0       0       0       0       
      +0       0       0       0       0       0       0       0       0       0       0       0       0       0       0       
      +0       0       0       0       0       0       0       0       0       0
  1724 ;;      Totals:         0       3       0       0       0       0       0       0       0       0       0       0       
      +0       0       0       0       0       0       0       0       0       0       0       0       0       0       0       
      +0       0       0       0       0       0       0       0       0       0       0       0       0       0       0       
      +0       0       0       0       0       0       0       0       0       0
  1725 ;;Total ram usage:        3 bytes
  1726 ;; Hardware stack levels used:    1
  1727 ;; Hardware stack levels required when called:    7
  1728 ;; This function calls:
  1729 ;;		Nothing
  1730 ;; This function is called by:
  1731 ;;		_CAN1_RX_FIFO_Configuration
  1732 ;; This function uses a non-reentrant model
  1733 ;;
  1734                           
  1735                           	psect	text13
  1736  004850                     __ptext13:
  1737                           	callstack 0
  1738  004850                     _CAN1_SetFIFO1NotEmptyHandler:
  1739                           	callstack 117
  1740  004850                     
  1741                           ;mcc_generated_files/can1.c: 697: void CAN1_SetFIFO1NotEmptyHandler(void (*handler)(void
      +                          ));mcc_generated_files/can1.c: 698: {;mcc_generated_files/can1.c: 699:     CAN1_FIFO1Not
      +                          EmptyHandler = handler;
  1742  004850  C560  F546         	movff	CAN1_SetFIFO1NotEmptyHandler@handler,_CAN1_FIFO1NotEmptyHandler
  1743  004854  C561  F547         	movff	CAN1_SetFIFO1NotEmptyHandler@handler+1,_CAN1_FIFO1NotEmptyHandler+1
  1744  004858  C562  F548         	movff	CAN1_SetFIFO1NotEmptyHandler@handler+2,_CAN1_FIFO1NotEmptyHandler+2
  1745  00485C  0012               	return		;funcret
  1746  00485E                     __end_of_CAN1_SetFIFO1NotEmptyHandler:
  1747                           	callstack 0
  1748                           
  1749 ;; *************** function _CAN1_OperationModeSet *****************
  1750 ;; Defined at:
  1751 ;;		line 351 in file "mcc_generated_files/can1.c"
  1752 ;; Parameters:    Size  Location     Type
  1753 ;;  requestMode     1    wreg     const enum E23063
  1754 ;; Auto vars:     Size  Location     Type
  1755 ;;  requestMode     1    2[BANK5 ] const enum E23063
  1756 ;;  status          1    1[BANK5 ] enum E23073
  1757 ;;  opMode          1    0[BANK5 ] enum E23063
  1758 ;; Return value:  Size  Location     Type
  1759 ;;                  1    wreg      enum E23073
  1760 ;; Registers used:
  1761 ;;		wreg, status,2, status,0, cstack
  1762 ;; Tracked objects:
  1763 ;;		On entry : 0/0
  1764 ;;		On exit  : 0/0
  1765 ;;		Unchanged: 0/0
  1766 ;; Data sizes:     COMRAM   BANK5   BANK6   BANK7   BANK8   BANK9  BANK10  BANK11  BANK12  BANK13  BANK14  BANK15  BANK1
      +6  BANK17  BANK18  BANK19  BANK20  BANK21  BANK22  BANK23  BANK24  BANK25  BANK26  BANK27  BANK28  BANK29  BANK30  BANK3
      +1  BANK32  BANK33  BANK34  BANK35  BANK36  BANK37  BANK38  BANK39  BANK40  BANK41  BANK42  BANK43  BANK44  BANK45  BANK4
      +6  BANK47  BANK48  BANK49  BANK50  BANK51  BANK52  BANK53  BANK54  BANK55
  1767 ;;      Params:         0       0       0       0       0       0       0       0       0       0       0       0       
      +0       0       0       0       0       0       0       0       0       0       0       0       0       0       0       
      +0       0       0       0       0       0       0       0       0       0       0       0       0       0       0       
      +0       0       0       0       0       0       0       0       0       0
  1768 ;;      Locals:         0       3       0       0       0       0       0       0       0       0       0       0       
      +0       0       0       0       0       0       0       0       0       0       0       0       0       0       0       
      +0       0       0       0       0       0       0       0       0       0       0       0       0       0       0       
      +0       0       0       0       0       0       0       0       0       0
  1769 ;;      Temps:          0       0       0       0       0       0       0       0       0       0       0       0       
      +0       0       0       0       0       0       0       0       0       0       0       0       0       0       0       
      +0       0       0       0       0       0       0       0       0       0       0       0       0       0       0       
      +0       0       0       0       0       0       0       0       0       0
  1770 ;;      Totals:         0       3       0       0       0       0       0       0       0       0       0       0       
      +0       0       0       0       0       0       0       0       0       0       0       0       0       0       0       
      +0       0       0       0       0       0       0       0       0       0       0       0       0       0       0       
      +0       0       0       0       0       0       0       0       0       0
  1771 ;;Total ram usage:        3 bytes
  1772 ;; Hardware stack levels used:    1
  1773 ;; Hardware stack levels required when called:    8
  1774 ;; This function calls:
  1775 ;;		_CAN1_OperationModeGet
  1776 ;; This function is called by:
  1777 ;;		_CAN1_Initialize
  1778 ;;		_CAN1_Sleep
  1779 ;; This function uses a non-reentrant model
  1780 ;;
  1781                           
  1782                           	psect	text14
  1783  0041A2                     __ptext14:
  1784                           	callstack 0
  1785  0041A2                     _CAN1_OperationModeSet:
  1786                           	callstack 117
  1787                           
  1788                           ;incstack = 0
  1789                           ;CAN1_OperationModeSet@requestMode stored from wreg
  1790  0041A2  0105               	movlb	5	; () banked
  1791  0041A4  6F62               	movwf	CAN1_OperationModeSet@requestMode& (0+255),b
  1792  0041A6                     
  1793                           ;mcc_generated_files/can1.c: 351: CAN_OP_MODE_STATUS CAN1_OperationModeSet(const CAN_OP_
      +                          MODES requestMode);mcc_generated_files/can1.c: 352: {;mcc_generated_files/can1.c: 353:  
      +                             CAN_OP_MODE_STATUS status = CAN_OP_MODE_REQUEST_SUCCESS;
  1794  0041A6  0E00               	movlw	0
  1795  0041A8  0105               	movlb	5	; () banked
  1796  0041AA  6F61               	movwf	CAN1_OperationModeSet@status& (0+255),b
  1797  0041AC                     
  1798                           ; BSR set to: 5
  1799                           ;mcc_generated_files/can1.c: 354:     CAN_OP_MODES opMode = CAN1_OperationModeGet();
  1800  0041AC  EC2F  F024         	call	_CAN1_OperationModeGet	;wreg free
  1801  0041B0  0105               	movlb	5	; () banked
  1802  0041B2  6F60               	movwf	CAN1_OperationModeSet@opMode& (0+255),b
  1803  0041B4                     
  1804                           ; BSR set to: 5
  1805                           ;mcc_generated_files/can1.c: 356:     if (CAN_CONFIGURATION_MODE == opMode
  1806  0041B4  0E04               	movlw	4
  1807  0041B6  1960               	xorwf	CAN1_OperationModeSet@opMode& (0+255),w,b
  1808  0041B8  B4D8               	btfsc	status,2,c
  1809  0041BA  EFE1  F020         	goto	u1381
  1810  0041BE  EFE3  F020         	goto	u1380
  1811  0041C2                     u1381:
  1812  0041C2  EFF4  F020         	goto	l2233
  1813  0041C6                     u1380:
  1814  0041C6                     
  1815                           ; BSR set to: 5
  1816  0041C6  0562               	decf	CAN1_OperationModeSet@requestMode& (0+255),w,b
  1817  0041C8  B4D8               	btfsc	status,2,c
  1818  0041CA  EFE9  F020         	goto	u1391
  1819  0041CE  EFEB  F020         	goto	u1390
  1820  0041D2                     u1391:
  1821  0041D2  EFF4  F020         	goto	l2233
  1822  0041D6                     u1390:
  1823  0041D6                     
  1824                           ; BSR set to: 5
  1825  0041D6  0E04               	movlw	4
  1826  0041D8  1962               	xorwf	CAN1_OperationModeSet@requestMode& (0+255),w,b
  1827  0041DA  A4D8               	btfss	status,2,c
  1828  0041DC  EFF2  F020         	goto	u1401
  1829  0041E0  EFF4  F020         	goto	u1400
  1830  0041E4                     u1401:
  1831  0041E4  EF19  F021         	goto	l2239
  1832  0041E8                     u1400:
  1833  0041E8                     l2233:
  1834                           
  1835                           ; BSR set to: 5
  1836                           ;mcc_generated_files/can1.c: 359:     {;mcc_generated_files/can1.c: 360:         C1CONTb
      +                          its.REQOP = requestMode;
  1837  0041E8  0101               	movlb	1	; () banked
  1838  0041EA  5103               	movf	3,w,b	;volatile
  1839  0041EC  0105               	movlb	5	; () banked
  1840  0041EE  1962               	xorwf	CAN1_OperationModeSet@requestMode& (0+255),w,b
  1841  0041F0  0BF8               	andlw	-8
  1842  0041F2  1962               	xorwf	CAN1_OperationModeSet@requestMode& (0+255),w,b
  1843  0041F4  0101               	movlb	1	; () banked
  1844  0041F6  6F03               	movwf	3,b	;volatile
  1845                           
  1846                           ;mcc_generated_files/can1.c: 362:         while (C1CONUbits.OPMOD != requestMode)
  1847  0041F8  EF0B  F021         	goto	l2237
  1848  0041FC                     l166:
  1849                           
  1850                           ; BSR set to: 5
  1851                           ;mcc_generated_files/can1.c: 363:         {;mcc_generated_files/can1.c: 365:            
      +                           if (1 == C1INTHbits.SERRIF)
  1852  0041FC  0101               	movlb	1	; () banked
  1853  0041FE  A91D               	btfss	29,4,b	;volatile
  1854  004200  EF04  F021         	goto	u1411
  1855  004204  EF06  F021         	goto	u1410
  1856  004208                     u1411:
  1857  004208  EF0B  F021         	goto	l2237
  1858  00420C                     u1410:
  1859  00420C                     
  1860                           ; BSR set to: 1
  1861                           ;mcc_generated_files/can1.c: 366:             {;mcc_generated_files/can1.c: 367:        
      +                                   status = CAN_OP_MODE_SYS_ERROR_OCCURED;
  1862  00420C  0E02               	movlw	2
  1863  00420E  0105               	movlb	5	; () banked
  1864  004210  6F61               	movwf	CAN1_OperationModeSet@status& (0+255),b
  1865                           
  1866                           ;mcc_generated_files/can1.c: 368:                 break;
  1867  004212  EF1B  F021         	goto	l169
  1868  004216                     l2237:
  1869                           
  1870                           ; BSR set to: 1
  1871                           ;mcc_generated_files/can1.c: 362:         while (C1CONUbits.OPMOD != requestMode)
  1872  004216  3902               	swapf	2,w,b	;volatile
  1873  004218  32E8               	rrcf	wreg,f,c
  1874  00421A  0B07               	andlw	7
  1875  00421C  0105               	movlb	5	; () banked
  1876  00421E  1962               	xorwf	CAN1_OperationModeSet@requestMode& (0+255),w,b
  1877  004220  A4D8               	btfss	status,2,c
  1878  004222  EF15  F021         	goto	u1421
  1879  004226  EF17  F021         	goto	u1420
  1880  00422A                     u1421:
  1881  00422A  EFFE  F020         	goto	l166
  1882  00422E                     u1420:
  1883  00422E  EF1B  F021         	goto	l169
  1884  004232                     l2239:
  1885                           
  1886                           ; BSR set to: 5
  1887                           ;mcc_generated_files/can1.c: 373:     {;mcc_generated_files/can1.c: 374:         status 
      +                          = CAN_OP_MODE_REQUEST_FAIL;
  1888  004232  0E01               	movlw	1
  1889  004234  6F61               	movwf	CAN1_OperationModeSet@status& (0+255),b
  1890  004236                     l169:
  1891                           
  1892                           ; BSR set to: 5
  1893                           ;mcc_generated_files/can1.c: 377:     return status;
  1894  004236  5161               	movf	CAN1_OperationModeSet@status& (0+255),w,b
  1895  004238                     
  1896                           ; BSR set to: 5
  1897  004238  0012               	return		;funcret
  1898  00423A                     __end_of_CAN1_OperationModeSet:
  1899                           	callstack 0
  1900                           
  1901 ;; *************** function _CAN1_OperationModeGet *****************
  1902 ;; Defined at:
  1903 ;;		line 380 in file "mcc_generated_files/can1.c"
  1904 ;; Parameters:    Size  Location     Type
  1905 ;;		None
  1906 ;; Auto vars:     Size  Location     Type
  1907 ;;		None
  1908 ;; Return value:  Size  Location     Type
  1909 ;;                  1    wreg      enum E23063
  1910 ;; Registers used:
  1911 ;;		wreg, status,2, status,0
  1912 ;; Tracked objects:
  1913 ;;		On entry : 0/0
  1914 ;;		On exit  : 0/0
  1915 ;;		Unchanged: 0/0
  1916 ;; Data sizes:     COMRAM   BANK5   BANK6   BANK7   BANK8   BANK9  BANK10  BANK11  BANK12  BANK13  BANK14  BANK15  BANK1
      +6  BANK17  BANK18  BANK19  BANK20  BANK21  BANK22  BANK23  BANK24  BANK25  BANK26  BANK27  BANK28  BANK29  BANK30  BANK3
      +1  BANK32  BANK33  BANK34  BANK35  BANK36  BANK37  BANK38  BANK39  BANK40  BANK41  BANK42  BANK43  BANK44  BANK45  BANK4
      +6  BANK47  BANK48  BANK49  BANK50  BANK51  BANK52  BANK53  BANK54  BANK55
  1917 ;;      Params:         0       0       0       0       0       0       0       0       0       0       0       0       
      +0       0       0       0       0       0       0       0       0       0       0       0       0       0       0       
      +0       0       0       0       0       0       0       0       0       0       0       0       0       0       0       
      +0       0       0       0       0       0       0       0       0       0
  1918 ;;      Locals:         0       0       0       0       0       0       0       0       0       0       0       0       
      +0       0       0       0       0       0       0       0       0       0       0       0       0       0       0       
      +0       0       0       0       0       0       0       0       0       0       0       0       0       0       0       
      +0       0       0       0       0       0       0       0       0       0
  1919 ;;      Temps:          0       0       0       0       0       0       0       0       0       0       0       0       
      +0       0       0       0       0       0       0       0       0       0       0       0       0       0       0       
      +0       0       0       0       0       0       0       0       0       0       0       0       0       0       0       
      +0       0       0       0       0       0       0       0       0       0
  1920 ;;      Totals:         0       0       0       0       0       0       0       0       0       0       0       0       
      +0       0       0       0       0       0       0       0       0       0       0       0       0       0       0       
      +0       0       0       0       0       0       0       0       0       0       0       0       0       0       0       
      +0       0       0       0       0       0       0       0       0       0
  1921 ;;Total ram usage:        0 bytes
  1922 ;; Hardware stack levels used:    1
  1923 ;; Hardware stack levels required when called:    7
  1924 ;; This function calls:
  1925 ;;		Nothing
  1926 ;; This function is called by:
  1927 ;;		_CAN1_OperationModeSet
  1928 ;; This function uses a non-reentrant model
  1929 ;;
  1930                           
  1931                           	psect	text15
  1932  00485E                     __ptext15:
  1933                           	callstack 0
  1934  00485E                     _CAN1_OperationModeGet:
  1935                           	callstack 117
  1936  00485E                     
  1937                           ;mcc_generated_files/can1.c: 382:     return C1CONUbits.OPMOD;
  1938  00485E  0101               	movlb	1	; () banked
  1939  004860  3902               	swapf	2,w,b	;volatile
  1940  004862  32E8               	rrcf	wreg,f,c
  1941  004864  0B07               	andlw	7
  1942  004866                     
  1943                           ; BSR set to: 1
  1944  004866  0012               	return		;funcret
  1945  004868                     __end_of_CAN1_OperationModeGet:
  1946                           	callstack 0
  1947                           
  1948 ;; *************** function _CAN1_BitRateConfiguration *****************
  1949 ;; Defined at:
  1950 ;;		line 289 in file "mcc_generated_files/can1.c"
  1951 ;; Parameters:    Size  Location     Type
  1952 ;;		None
  1953 ;; Auto vars:     Size  Location     Type
  1954 ;;		None
  1955 ;; Return value:  Size  Location     Type
  1956 ;;                  1    wreg      void 
  1957 ;; Registers used:
  1958 ;;		wreg, status,2
  1959 ;; Tracked objects:
  1960 ;;		On entry : 0/0
  1961 ;;		On exit  : 0/0
  1962 ;;		Unchanged: 0/0
  1963 ;; Data sizes:     COMRAM   BANK5   BANK6   BANK7   BANK8   BANK9  BANK10  BANK11  BANK12  BANK13  BANK14  BANK15  BANK1
      +6  BANK17  BANK18  BANK19  BANK20  BANK21  BANK22  BANK23  BANK24  BANK25  BANK26  BANK27  BANK28  BANK29  BANK30  BANK3
      +1  BANK32  BANK33  BANK34  BANK35  BANK36  BANK37  BANK38  BANK39  BANK40  BANK41  BANK42  BANK43  BANK44  BANK45  BANK4
      +6  BANK47  BANK48  BANK49  BANK50  BANK51  BANK52  BANK53  BANK54  BANK55
  1964 ;;      Params:         0       0       0       0       0       0       0       0       0       0       0       0       
      +0       0       0       0       0       0       0       0       0       0       0       0       0       0       0       
      +0       0       0       0       0       0       0       0       0       0       0       0       0       0       0       
      +0       0       0       0       0       0       0       0       0       0
  1965 ;;      Locals:         0       0       0       0       0       0       0       0       0       0       0       0       
      +0       0       0       0       0       0       0       0       0       0       0       0       0       0       0       
      +0       0       0       0       0       0       0       0       0       0       0       0       0       0       0       
      +0       0       0       0       0       0       0       0       0       0
  1966 ;;      Temps:          0       0       0       0       0       0       0       0       0       0       0       0       
      +0       0       0       0       0       0       0       0       0       0       0       0       0       0       0       
      +0       0       0       0       0       0       0       0       0       0       0       0       0       0       0       
      +0       0       0       0       0       0       0       0       0       0
  1967 ;;      Totals:         0       0       0       0       0       0       0       0       0       0       0       0       
      +0       0       0       0       0       0       0       0       0       0       0       0       0       0       0       
      +0       0       0       0       0       0       0       0       0       0       0       0       0       0       0       
      +0       0       0       0       0       0       0       0       0       0
  1968 ;;Total ram usage:        0 bytes
  1969 ;; Hardware stack levels used:    1
  1970 ;; Hardware stack levels required when called:    7
  1971 ;; This function calls:
  1972 ;;		Nothing
  1973 ;; This function is called by:
  1974 ;;		_CAN1_Initialize
  1975 ;; This function uses a non-reentrant model
  1976 ;;
  1977                           
  1978                           	psect	text16
  1979  0046C4                     __ptext16:
  1980                           	callstack 0
  1981  0046C4                     _CAN1_BitRateConfiguration:
  1982                           	callstack 118
  1983  0046C4                     
  1984                           ;mcc_generated_files/can1.c: 292:     C1NBTCFGL = 0x09;
  1985  0046C4  0E09               	movlw	9
  1986  0046C6  0101               	movlb	1	; () banked
  1987  0046C8  6F04               	movwf	4,b	;volatile
  1988                           
  1989                           ;mcc_generated_files/can1.c: 295:     C1NBTCFGH = 0x09;
  1990  0046CA  0E09               	movlw	9
  1991  0046CC  6F05               	movwf	5,b	;volatile
  1992                           
  1993                           ;mcc_generated_files/can1.c: 298:     C1NBTCFGU = 0x1C;
  1994  0046CE  0E1C               	movlw	28
  1995  0046D0  6F06               	movwf	6,b	;volatile
  1996                           
  1997                           ;mcc_generated_files/can1.c: 301:     C1NBTCFGT = 0x00;
  1998  0046D2  0E00               	movlw	0
  1999  0046D4  6F07               	movwf	7,b	;volatile
  2000                           
  2001                           ;mcc_generated_files/can1.c: 304:     C1DBTCFGL = 0x01;
  2002  0046D6  0E01               	movlw	1
  2003  0046D8  6F08               	movwf	8,b	;volatile
  2004                           
  2005                           ;mcc_generated_files/can1.c: 307:     C1DBTCFGH = 0x01;
  2006  0046DA  0E01               	movlw	1
  2007  0046DC  6F09               	movwf	9,b	;volatile
  2008                           
  2009                           ;mcc_generated_files/can1.c: 310:     C1DBTCFGU = 0x04;
  2010  0046DE  0E04               	movlw	4
  2011  0046E0  6F0A               	movwf	10,b	;volatile
  2012                           
  2013                           ;mcc_generated_files/can1.c: 313:     C1DBTCFGT = 0x00;
  2014  0046E2  0E00               	movlw	0
  2015  0046E4  6F0B               	movwf	11,b	;volatile
  2016                           
  2017                           ;mcc_generated_files/can1.c: 316:     C1TDCH = 0x05;
  2018  0046E6  0E05               	movlw	5
  2019  0046E8  6F0D               	movwf	13,b	;volatile
  2020                           
  2021                           ;mcc_generated_files/can1.c: 319:     C1TDCU = 0x02;
  2022  0046EA  0E02               	movlw	2
  2023  0046EC  6F0E               	movwf	14,b	;volatile
  2024  0046EE                     
  2025                           ; BSR set to: 1
  2026  0046EE  0012               	return		;funcret
  2027  0046F0                     __end_of_CAN1_BitRateConfiguration:
  2028                           	callstack 0
  2029                           
  2030 ;; *************** function _INTERRUPT_InterruptManager *****************
  2031 ;; Defined at:
  2032 ;;		line 58 in file "mcc_generated_files/interrupt_manager.c"
  2033 ;; Parameters:    Size  Location     Type
  2034 ;;		None
  2035 ;; Auto vars:     Size  Location     Type
  2036 ;;		None
  2037 ;; Return value:  Size  Location     Type
  2038 ;;                  1    wreg      void 
  2039 ;; Registers used:
  2040 ;;		wreg, fsr1l, fsr1h, fsr2l, fsr2h, status,2, status,0, pclath, tosl, tblptrl, tblptrh, tblptru, prodl, prodh, cstack
  2041 ;; Tracked objects:
  2042 ;;		On entry : 0/0
  2043 ;;		On exit  : 0/0
  2044 ;;		Unchanged: 0/0
  2045 ;; Data sizes:     COMRAM   BANK5   BANK6   BANK7   BANK8   BANK9  BANK10  BANK11  BANK12  BANK13  BANK14  BANK15  BANK1
      +6  BANK17  BANK18  BANK19  BANK20  BANK21  BANK22  BANK23  BANK24  BANK25  BANK26  BANK27  BANK28  BANK29  BANK30  BANK3
      +1  BANK32  BANK33  BANK34  BANK35  BANK36  BANK37  BANK38  BANK39  BANK40  BANK41  BANK42  BANK43  BANK44  BANK45  BANK4
      +6  BANK47  BANK48  BANK49  BANK50  BANK51  BANK52  BANK53  BANK54  BANK55
  2046 ;;      Params:         0       0       0       0       0       0       0       0       0       0       0       0       
      +0       0       0       0       0       0       0       0       0       0       0       0       0       0       0       
      +0       0       0       0       0       0       0       0       0       0       0       0       0       0       0       
      +0       0       0       0       0       0       0       0       0       0
  2047 ;;      Locals:         0       0       0       0       0       0       0       0       0       0       0       0       
      +0       0       0       0       0       0       0       0       0       0       0       0       0       0       0       
      +0       0       0       0       0       0       0       0       0       0       0       0       0       0       0       
      +0       0       0       0       0       0       0       0       0       0
  2048 ;;      Temps:          4       0       0       0       0       0       0       0       0       0       0       0       
      +0       0       0       0       0       0       0       0       0       0       0       0       0       0       0       
      +0       0       0       0       0       0       0       0       0       0       0       0       0       0       0       
      +0       0       0       0       0       0       0       0       0       0
  2049 ;;      Totals:         4       0       0       0       0       0       0       0       0       0       0       0       
      +0       0       0       0       0       0       0       0       0       0       0       0       0       0       0       
      +0       0       0       0       0       0       0       0       0       0       0       0       0       0       0       
      +0       0       0       0       0       0       0       0       0       0
  2050 ;;Total ram usage:        4 bytes
  2051 ;; Hardware stack levels used:    1
  2052 ;; Hardware stack levels required when called:    6
  2053 ;; This function calls:
  2054 ;;		_CAN1_RXI_ISR
  2055 ;;		_TU16A_ISR
  2056 ;; This function is called by:
  2057 ;;		Interrupt level 2
  2058 ;; This function uses a non-reentrant model
  2059 ;;
  2060                           
  2061                           	psect	text17
  2062  004360                     __ptext17:
  2063                           	callstack 0
  2064  004360                     _INTERRUPT_InterruptManager:
  2065                           	callstack 117
  2066                           
  2067                           ; BSR set to: 1
  2068                           ;incstack = 0
  2069  004360  0061 F3D8  F542    	movff	tblptrl,??_INTERRUPT_InterruptManager
  2070  004366  0061 F3DC  F543    	movff	tblptrh,??_INTERRUPT_InterruptManager+1
  2071  00436C  0061 F3E0  F544    	movff	tblptru,??_INTERRUPT_InterruptManager+2
  2072  004372  0061 F3D4  F545    	movff	tablat,??_INTERRUPT_InterruptManager+3
  2073  004378                     
  2074                           ;mcc_generated_files/interrupt_manager.c: 61:     if(PIE0bits.TU16AIE == 1 && PIR0bits.T
      +                          U16AIF == 1)
  2075  004378  A89E               	btfss	158,4,c	;volatile
  2076  00437A  EFC1  F021         	goto	i2u167_41
  2077  00437E  EFC3  F021         	goto	i2u167_40
  2078  004382                     i2u167_41:
  2079  004382  EFCE  F021         	goto	i2l433
  2080  004386                     i2u167_40:
  2081  004386  A8AE               	btfss	174,4,c	;volatile
  2082  004388  EFC8  F021         	goto	i2u168_41
  2083  00438C  EFCA  F021         	goto	i2u168_40
  2084  004390                     i2u168_41:
  2085  004390  EFCE  F021         	goto	i2l433
  2086  004394                     i2u168_40:
  2087  004394                     
  2088                           ;mcc_generated_files/interrupt_manager.c: 62:     {;mcc_generated_files/interrupt_manage
      +                          r.c: 63:         TU16A_ISR();
  2089  004394  ECF4  F022         	call	_TU16A_ISR	;wreg free
  2090                           
  2091                           ;mcc_generated_files/interrupt_manager.c: 64:     }
  2092  004398  EFDE  F021         	goto	i2l437
  2093  00439C                     i2l433:
  2094  00439C  A8A2               	btfss	162,4,c	;volatile
  2095  00439E  EFD3  F021         	goto	i2u169_41
  2096  0043A2  EFD5  F021         	goto	i2u169_40
  2097  0043A6                     i2u169_41:
  2098  0043A6  EFDE  F021         	goto	i2l437
  2099  0043AA                     i2u169_40:
  2100  0043AA  A8B2               	btfss	178,4,c	;volatile
  2101  0043AC  EFDA  F021         	goto	i2u170_41
  2102  0043B0  EFDC  F021         	goto	i2u170_40
  2103  0043B4                     i2u170_41:
  2104  0043B4  EFDE  F021         	goto	i2l437
  2105  0043B8                     i2u170_40:
  2106  0043B8                     
  2107                           ;mcc_generated_files/interrupt_manager.c: 66:     {;mcc_generated_files/interrupt_manage
      +                          r.c: 67:         CAN1_RXI_ISR();
  2108  0043B8  EC78  F023         	call	_CAN1_RXI_ISR	;wreg free
  2109  0043BC                     i2l437:
  2110  0043BC  0061  F514  F4F5   	movff	??_INTERRUPT_InterruptManager+3,tablat
  2111  0043C2  0061  F510  F4F8   	movff	??_INTERRUPT_InterruptManager+2,tblptru
  2112  0043C8  0061  F50C  F4F7   	movff	??_INTERRUPT_InterruptManager+1,tblptrh
  2113  0043CE  0061  F508  F4F6   	movff	??_INTERRUPT_InterruptManager,tblptrl
  2114  0043D4  0011               	retfie		f
  2115  0043D6                     __end_of_INTERRUPT_InterruptManager:
  2116                           	callstack 0
  2117                           
  2118 ;; *************** function _TU16A_ISR *****************
  2119 ;; Defined at:
  2120 ;;		line 225 in file "mcc_generated_files/tu16a.c"
  2121 ;; Parameters:    Size  Location     Type
  2122 ;;		None
  2123 ;; Auto vars:     Size  Location     Type
  2124 ;;		None
  2125 ;; Return value:  Size  Location     Type
  2126 ;;                  1    wreg      void 
  2127 ;; Registers used:
  2128 ;;		wreg, fsr1l, fsr1h, fsr2l, fsr2h, status,2, status,0, pclath, tosl, tblptrl, tblptrh, tblptru, prodl, prodh, cstack
  2129 ;; Tracked objects:
  2130 ;;		On entry : 0/0
  2131 ;;		On exit  : 0/0
  2132 ;;		Unchanged: 0/0
  2133 ;; Data sizes:     COMRAM   BANK5   BANK6   BANK7   BANK8   BANK9  BANK10  BANK11  BANK12  BANK13  BANK14  BANK15  BANK1
      +6  BANK17  BANK18  BANK19  BANK20  BANK21  BANK22  BANK23  BANK24  BANK25  BANK26  BANK27  BANK28  BANK29  BANK30  BANK3
      +1  BANK32  BANK33  BANK34  BANK35  BANK36  BANK37  BANK38  BANK39  BANK40  BANK41  BANK42  BANK43  BANK44  BANK45  BANK4
      +6  BANK47  BANK48  BANK49  BANK50  BANK51  BANK52  BANK53  BANK54  BANK55
  2134 ;;      Params:         0       0       0       0       0       0       0       0       0       0       0       0       
      +0       0       0       0       0       0       0       0       0       0       0       0       0       0       0       
      +0       0       0       0       0       0       0       0       0       0       0       0       0       0       0       
      +0       0       0       0       0       0       0       0       0       0
  2135 ;;      Locals:         0       0       0       0       0       0       0       0       0       0       0       0       
      +0       0       0       0       0       0       0       0       0       0       0       0       0       0       0       
      +0       0       0       0       0       0       0       0       0       0       0       0       0       0       0       
      +0       0       0       0       0       0       0       0       0       0
  2136 ;;      Temps:          0       0       0       0       0       0       0       0       0       0       0       0       
      +0       0       0       0       0       0       0       0       0       0       0       0       0       0       0       
      +0       0       0       0       0       0       0       0       0       0       0       0       0       0       0       
      +0       0       0       0       0       0       0       0       0       0
  2137 ;;      Totals:         0       0       0       0       0       0       0       0       0       0       0       0       
      +0       0       0       0       0       0       0       0       0       0       0       0       0       0       0       
      +0       0       0       0       0       0       0       0       0       0       0       0       0       0       0       
      +0       0       0       0       0       0       0       0       0       0
  2138 ;;Total ram usage:        0 bytes
  2139 ;; Hardware stack levels used:    1
  2140 ;; Hardware stack levels required when called:    4
  2141 ;; This function calls:
  2142 ;;		Absolute function
  2143 ;;		_TU16A_DefaultInterruptHandler
  2144 ;; This function is called by:
  2145 ;;		_INTERRUPT_InterruptManager
  2146 ;; This function uses a non-reentrant model
  2147 ;;
  2148                           
  2149                           	psect	text18
  2150  0045E8                     __ptext18:
  2151                           	callstack 0
  2152  0045E8                     _TU16A_ISR:
  2153                           	callstack 118
  2154  0045E8                     
  2155                           ;mcc_generated_files/tu16a.c: 227:     if(TU16ACON1bits.PRIF == 1)
  2156  0045E8  0103               	movlb	3	; () banked
  2157  0045EA  A588               	btfss	136,2,b	;volatile
  2158  0045EC  EFFA  F022         	goto	i2u162_41
  2159  0045F0  EFFC  F022         	goto	i2u162_40
  2160  0045F4                     i2u162_41:
  2161  0045F4  EFFD  F022         	goto	i2l2431
  2162  0045F8                     i2u162_40:
  2163  0045F8                     
  2164                           ; BSR set to: 3
  2165                           ;mcc_generated_files/tu16a.c: 228:     {;mcc_generated_files/tu16a.c: 229:         TU16A
      +                          CON1bits.PRIF = 0;
  2166  0045F8  9588               	bcf	136,2,b	;volatile
  2167  0045FA                     i2l2431:
  2168                           
  2169                           ; BSR set to: 3
  2170                           ;mcc_generated_files/tu16a.c: 232:     if(TU16A_InterruptHandler)
  2171  0045FA  5059               	movf	_TU16A_InterruptHandler^(0+1280),w,c
  2172  0045FC  105A               	iorwf	(_TU16A_InterruptHandler+1)^(0+1280),w,c
  2173  0045FE  105B               	iorwf	(_TU16A_InterruptHandler+2)^(0+1280),w,c
  2174  004600  B4D8               	btfsc	status,2,c
  2175  004602  EF05  F023         	goto	i2u163_41
  2176  004606  EF07  F023         	goto	i2u163_40
  2177  00460A                     i2u163_41:
  2178  00460A  EF14  F023         	goto	i2l402
  2179  00460E                     i2u163_40:
  2180  00460E                     
  2181                           ; BSR set to: 3
  2182                           ;mcc_generated_files/tu16a.c: 233:     {;mcc_generated_files/tu16a.c: 234:         TU16A
      +                          _InterruptHandler();
  2183  00460E  D802               	call	i2u164_48
  2184  004610  EF14  F023         	goto	i2u164_49
  2185  004614                     i2u164_48:
  2186  004614  0005               	push	
  2187  004616  6EFA               	movwf	pclath,c
  2188  004618  5059               	movf	_TU16A_InterruptHandler^(0+1280),w,c
  2189  00461A  6EFD               	movwf	tosl,c
  2190  00461C  505A               	movf	(_TU16A_InterruptHandler+1)^(0+1280),w,c
  2191  00461E  6EFE               	movwf	tosh,c
  2192  004620  505B               	movf	(_TU16A_InterruptHandler+2)^(0+1280),w,c
  2193  004622  6EFF               	movwf	tosu,c
  2194  004624  50FA               	movf	pclath,w,c
  2195  004626  0012               	return		;indir
  2196  004628                     i2u164_49:
  2197  004628                     i2l402:
  2198  004628  0012               	return		;funcret
  2199  00462A                     __end_of_TU16A_ISR:
  2200                           	callstack 0
  2201                           
  2202 ;; *************** function _TU16A_DefaultInterruptHandler *****************
  2203 ;; Defined at:
  2204 ;;		line 244 in file "mcc_generated_files/tu16a.c"
  2205 ;; Parameters:    Size  Location     Type
  2206 ;;		None
  2207 ;; Auto vars:     Size  Location     Type
  2208 ;;  Transmit_Dat    8   30[COMRAM] unsigned char [8]
  2209 ;;  Transmission    7   38[COMRAM] struct .
  2210 ;; Return value:  Size  Location     Type
  2211 ;;                  1    wreg      void 
  2212 ;; Registers used:
  2213 ;;		wreg, fsr1l, fsr1h, fsr2l, fsr2h, status,2, status,0, tblptrl, tblptrh, tblptru, prodl, prodh, cstack
  2214 ;; Tracked objects:
  2215 ;;		On entry : 0/0
  2216 ;;		On exit  : 0/0
  2217 ;;		Unchanged: 0/0
  2218 ;; Data sizes:     COMRAM   BANK5   BANK6   BANK7   BANK8   BANK9  BANK10  BANK11  BANK12  BANK13  BANK14  BANK15  BANK1
      +6  BANK17  BANK18  BANK19  BANK20  BANK21  BANK22  BANK23  BANK24  BANK25  BANK26  BANK27  BANK28  BANK29  BANK30  BANK3
      +1  BANK32  BANK33  BANK34  BANK35  BANK36  BANK37  BANK38  BANK39  BANK40  BANK41  BANK42  BANK43  BANK44  BANK45  BANK4
      +6  BANK47  BANK48  BANK49  BANK50  BANK51  BANK52  BANK53  BANK54  BANK55
  2219 ;;      Params:         0       0       0       0       0       0       0       0       0       0       0       0       
      +0       0       0       0       0       0       0       0       0       0       0       0       0       0       0       
      +0       0       0       0       0       0       0       0       0       0       0       0       0       0       0       
      +0       0       0       0       0       0       0       0       0       0
  2220 ;;      Locals:        15       0       0       0       0       0       0       0       0       0       0       0       
      +0       0       0       0       0       0       0       0       0       0       0       0       0       0       0       
      +0       0       0       0       0       0       0       0       0       0       0       0       0       0       0       
      +0       0       0       0       0       0       0       0       0       0
  2221 ;;      Temps:          1       0       0       0       0       0       0       0       0       0       0       0       
      +0       0       0       0       0       0       0       0       0       0       0       0       0       0       0       
      +0       0       0       0       0       0       0       0       0       0       0       0       0       0       0       
      +0       0       0       0       0       0       0       0       0       0
  2222 ;;      Totals:        16       0       0       0       0       0       0       0       0       0       0       0       
      +0       0       0       0       0       0       0       0       0       0       0       0       0       0       0       
      +0       0       0       0       0       0       0       0       0       0       0       0       0       0       0       
      +0       0       0       0       0       0       0       0       0       0
  2223 ;;Total ram usage:       16 bytes
  2224 ;; Hardware stack levels used:    1
  2225 ;; Hardware stack levels required when called:    3
  2226 ;; This function calls:
  2227 ;;		_CAN1_Transmit
  2228 ;;		_CAN1_TransmitFIFOStatusGet
  2229 ;; This function is called by:
  2230 ;;		_TU16A_Initialize
  2231 ;;		_TU16A_ISR
  2232 ;; This function uses a non-reentrant model
  2233 ;;
  2234                           
  2235                           	psect	text19
  2236  0043D6                     __ptext19:
  2237                           	callstack 0
  2238  0043D6                     _TU16A_DefaultInterruptHandler:
  2239                           	callstack 118
  2240  0043D6                     
  2241                           ;mcc_generated_files/tu16a.c: 245:     CAN_MSG_OBJ Transmission;;mcc_generated_files/tu1
      +                          6a.c: 246:     uint8_t Transmit_Data[8]={0x00,0x11,0x22,0x33,0x44,0x55,0x66,0x77};
  2242  0043D6  EE21  F151         	lfsr	2,TU16A_DefaultInterruptHandler@F23391
  2243  0043DA  EE11  F11F         	lfsr	1,TU16A_DefaultInterruptHandler@Transmit_Data
  2244  0043DE  0E07               	movlw	7
  2245  0043E0                     i2u157_41:
  2246  0043E0  C4DB F4E3          	movff	plusw2,plusw1
  2247  0043E4  06E8               	decf	wreg,f,c
  2248  0043E6  E2FC               	bc	i2u157_41
  2249  0043E8                     
  2250                           ;mcc_generated_files/tu16a.c: 247:     Transmission.field.brs=CAN_BRS_MODE;
  2251  0043E8  8E2B               	bsf	(TU16A_DefaultInterruptHandler@Transmission+4)^(0+1280),7,c
  2252  0043EA                     
  2253                           ;mcc_generated_files/tu16a.c: 248:     Transmission.field.dlc=DLC_8;
  2254  0043EA  502B               	movf	(TU16A_DefaultInterruptHandler@Transmission+4)^(0+1280),w,c
  2255  0043EC  0BC3               	andlw	-61
  2256  0043EE  0920               	iorlw	32
  2257  0043F0  6E2B               	movwf	(TU16A_DefaultInterruptHandler@Transmission+4)^(0+1280),c
  2258  0043F2                     
  2259                           ;mcc_generated_files/tu16a.c: 249:     Transmission.field.formatType=CAN_FD_FORMAT;
  2260  0043F2  8C2B               	bsf	(TU16A_DefaultInterruptHandler@Transmission+4)^(0+1280),6,c
  2261  0043F4                     
  2262                           ;mcc_generated_files/tu16a.c: 250:     Transmission.field.frameType=CAN_FRAME_DATA;
  2263  0043F4  922B               	bcf	(TU16A_DefaultInterruptHandler@Transmission+4)^(0+1280),1,c
  2264  0043F6                     
  2265                           ;mcc_generated_files/tu16a.c: 251:     Transmission.field.idType=CAN_FRAME_STD;
  2266  0043F6  902B               	bcf	(TU16A_DefaultInterruptHandler@Transmission+4)^(0+1280),0,c
  2267  0043F8                     
  2268                           ;mcc_generated_files/tu16a.c: 252:     Transmission.msgId=0x585;
  2269  0043F8  0E85               	movlw	133
  2270  0043FA  6E27               	movwf	TU16A_DefaultInterruptHandler@Transmission^(0+1280),c
  2271  0043FC  0E05               	movlw	5
  2272  0043FE  6E28               	movwf	(TU16A_DefaultInterruptHandler@Transmission+1)^(0+1280),c
  2273  004400  0E00               	movlw	0
  2274  004402  6E29               	movwf	(TU16A_DefaultInterruptHandler@Transmission+2)^(0+1280),c
  2275  004404  0E00               	movlw	0
  2276  004406  6E2A               	movwf	(TU16A_DefaultInterruptHandler@Transmission+3)^(0+1280),c
  2277  004408                     
  2278                           ;mcc_generated_files/tu16a.c: 253:     Transmission.data=Transmit_Data;
  2279  004408  0E1F               	movlw	low TU16A_DefaultInterruptHandler@Transmit_Data
  2280  00440A  6E2C               	movwf	(TU16A_DefaultInterruptHandler@Transmission+5)^(0+1280),c
  2281  00440C  0E05               	movlw	high TU16A_DefaultInterruptHandler@Transmit_Data
  2282  00440E  6E2D               	movwf	(TU16A_DefaultInterruptHandler@Transmission+6)^(0+1280),c
  2283  004410                     
  2284                           ;mcc_generated_files/tu16a.c: 254:     if(CAN_TX_FIFO_AVAILABLE == (CAN1_TransmitFIFOSta
      +                          tusGet(TXQ) & CAN_TX_FIFO_AVAILABLE))
  2285  004410  0E00               	movlw	0
  2286  004412  ECA2  F023         	call	_CAN1_TransmitFIFOStatusGet
  2287  004416  6E1E               	movwf	??_TU16A_DefaultInterruptHandler^(0+1280),c
  2288  004418  A01E               	btfss	??_TU16A_DefaultInterruptHandler^(0+1280),0,c
  2289  00441A  EF11  F022         	goto	i2u158_41
  2290  00441E  EF13  F022         	goto	i2u158_40
  2291  004422                     i2u158_41:
  2292  004422  EF1A  F022         	goto	i2l411
  2293  004426                     i2u158_40:
  2294  004426                     
  2295                           ;mcc_generated_files/tu16a.c: 255:                 {;mcc_generated_files/tu16a.c: 256:  
      +                                             CAN1_Transmit(TXQ, &Transmission);
  2296  004426  0E27               	movlw	low TU16A_DefaultInterruptHandler@Transmission
  2297  004428  6E18               	movwf	CAN1_Transmit@txCanMsg^(0+1280),c
  2298  00442A  0E05               	movlw	high TU16A_DefaultInterruptHandler@Transmission
  2299  00442C  6E19               	movwf	(CAN1_Transmit@txCanMsg+1)^(0+1280),c
  2300  00442E  0E00               	movlw	0
  2301  004430  EC1D  F021         	call	_CAN1_Transmit
  2302  004434                     i2l411:
  2303  004434  0012               	return		;funcret
  2304  004436                     __end_of_TU16A_DefaultInterruptHandler:
  2305                           	callstack 0
  2306                           
  2307 ;; *************** function _CAN1_RXI_ISR *****************
  2308 ;; Defined at:
  2309 ;;		line 703 in file "mcc_generated_files/can1.c"
  2310 ;; Parameters:    Size  Location     Type
  2311 ;;		None
  2312 ;; Auto vars:     Size  Location     Type
  2313 ;;		None
  2314 ;; Return value:  Size  Location     Type
  2315 ;;                  1    wreg      void 
  2316 ;; Registers used:
  2317 ;;		wreg, fsr1l, fsr1h, fsr2l, fsr2h, status,2, status,0, pclath, tosl, tblptrl, tblptrh, tblptru, prodl, prodh, cstack
  2318 ;; Tracked objects:
  2319 ;;		On entry : 0/0
  2320 ;;		On exit  : 0/0
  2321 ;;		Unchanged: 0/0
  2322 ;; Data sizes:     COMRAM   BANK5   BANK6   BANK7   BANK8   BANK9  BANK10  BANK11  BANK12  BANK13  BANK14  BANK15  BANK1
      +6  BANK17  BANK18  BANK19  BANK20  BANK21  BANK22  BANK23  BANK24  BANK25  BANK26  BANK27  BANK28  BANK29  BANK30  BANK3
      +1  BANK32  BANK33  BANK34  BANK35  BANK36  BANK37  BANK38  BANK39  BANK40  BANK41  BANK42  BANK43  BANK44  BANK45  BANK4
      +6  BANK47  BANK48  BANK49  BANK50  BANK51  BANK52  BANK53  BANK54  BANK55
  2323 ;;      Params:         0       0       0       0       0       0       0       0       0       0       0       0       
      +0       0       0       0       0       0       0       0       0       0       0       0       0       0       0       
      +0       0       0       0       0       0       0       0       0       0       0       0       0       0       0       
      +0       0       0       0       0       0       0       0       0       0
  2324 ;;      Locals:         0       0       0       0       0       0       0       0       0       0       0       0       
      +0       0       0       0       0       0       0       0       0       0       0       0       0       0       0       
      +0       0       0       0       0       0       0       0       0       0       0       0       0       0       0       
      +0       0       0       0       0       0       0       0       0       0
  2325 ;;      Temps:          0       0       0       0       0       0       0       0       0       0       0       0       
      +0       0       0       0       0       0       0       0       0       0       0       0       0       0       0       
      +0       0       0       0       0       0       0       0       0       0       0       0       0       0       0       
      +0       0       0       0       0       0       0       0       0       0
  2326 ;;      Totals:         0       0       0       0       0       0       0       0       0       0       0       0       
      +0       0       0       0       0       0       0       0       0       0       0       0       0       0       0       
      +0       0       0       0       0       0       0       0       0       0       0       0       0       0       0       
      +0       0       0       0       0       0       0       0       0       0
  2327 ;;Total ram usage:        0 bytes
  2328 ;; Hardware stack levels used:    1
  2329 ;; Hardware stack levels required when called:    5
  2330 ;; This function calls:
  2331 ;;		Absolute function
  2332 ;;		_DefaultFIFO1NotEmptyHandler
  2333 ;; This function is called by:
  2334 ;;		_INTERRUPT_InterruptManager
  2335 ;; This function uses a non-reentrant model
  2336 ;;
  2337                           
  2338                           	psect	text20
  2339  0046F0                     __ptext20:
  2340                           	callstack 0
  2341  0046F0                     _CAN1_RXI_ISR:
  2342                           	callstack 117
  2343  0046F0                     
  2344                           ;mcc_generated_files/can1.c: 705:     if (1 == C1FIFOSTA1Lbits.TFNRFNIF)
  2345  0046F0  0101               	movlb	1	; () banked
  2346  0046F2  A160               	btfss	96,0,b	;volatile
  2347  0046F4  EF7E  F023         	goto	i2u160_41
  2348  0046F8  EF80  F023         	goto	i2u160_40
  2349  0046FC                     i2u160_41:
  2350  0046FC  EF8D  F023         	goto	i2l280
  2351  004700                     i2u160_40:
  2352  004700                     
  2353                           ; BSR set to: 1
  2354                           ;mcc_generated_files/can1.c: 706:     {;mcc_generated_files/can1.c: 707:         CAN1_FI
      +                          FO1NotEmptyHandler();
  2355  004700  D802               	call	i2u161_48
  2356  004702  EF8D  F023         	goto	i2u161_49
  2357  004706                     i2u161_48:
  2358  004706  0005               	push	
  2359  004708  6EFA               	movwf	pclath,c
  2360  00470A  5046               	movf	_CAN1_FIFO1NotEmptyHandler^(0+1280),w,c
  2361  00470C  6EFD               	movwf	tosl,c
  2362  00470E  5047               	movf	(_CAN1_FIFO1NotEmptyHandler+1)^(0+1280),w,c
  2363  004710  6EFE               	movwf	tosh,c
  2364  004712  5048               	movf	(_CAN1_FIFO1NotEmptyHandler+2)^(0+1280),w,c
  2365  004714  6EFF               	movwf	tosu,c
  2366  004716  50FA               	movf	pclath,w,c
  2367  004718  0012               	return		;indir
  2368  00471A                     i2u161_49:
  2369  00471A                     i2l280:
  2370  00471A  0012               	return		;funcret
  2371  00471C                     __end_of_CAN1_RXI_ISR:
  2372                           	callstack 0
  2373                           
  2374 ;; *************** function _DefaultFIFO1NotEmptyHandler *****************
  2375 ;; Defined at:
  2376 ;;		line 111 in file "mcc_generated_files/can1.c"
  2377 ;; Parameters:    Size  Location     Type
  2378 ;;		None
  2379 ;; Auto vars:     Size  Location     Type
  2380 ;;  data_Out        8   42[COMRAM] unsigned char [8]
  2381 ;;  Return_Messa    7   58[COMRAM] struct .
  2382 ;;  Currently_Pr    7   50[COMRAM] struct .
  2383 ;;  PID             1   57[COMRAM] unsigned char 
  2384 ;;  mode            1   41[COMRAM] unsigned char 
  2385 ;;  numBytes        1   40[COMRAM] unsigned char 
  2386 ;; Return value:  Size  Location     Type
  2387 ;;                  1    wreg      void 
  2388 ;; Registers used:
  2389 ;;		wreg, fsr1l, fsr1h, fsr2l, fsr2h, status,2, status,0, tblptrl, tblptrh, tblptru, prodl, prodh, cstack
  2390 ;; Tracked objects:
  2391 ;;		On entry : 0/0
  2392 ;;		On exit  : 0/0
  2393 ;;		Unchanged: 0/0
  2394 ;; Data sizes:     COMRAM   BANK5   BANK6   BANK7   BANK8   BANK9  BANK10  BANK11  BANK12  BANK13  BANK14  BANK15  BANK1
      +6  BANK17  BANK18  BANK19  BANK20  BANK21  BANK22  BANK23  BANK24  BANK25  BANK26  BANK27  BANK28  BANK29  BANK30  BANK3
      +1  BANK32  BANK33  BANK34  BANK35  BANK36  BANK37  BANK38  BANK39  BANK40  BANK41  BANK42  BANK43  BANK44  BANK45  BANK4
      +6  BANK47  BANK48  BANK49  BANK50  BANK51  BANK52  BANK53  BANK54  BANK55
  2395 ;;      Params:         0       0       0       0       0       0       0       0       0       0       0       0       
      +0       0       0       0       0       0       0       0       0       0       0       0       0       0       0       
      +0       0       0       0       0       0       0       0       0       0       0       0       0       0       0       
      +0       0       0       0       0       0       0       0       0       0
  2396 ;;      Locals:        25       0       0       0       0       0       0       0       0       0       0       0       
      +0       0       0       0       0       0       0       0       0       0       0       0       0       0       0       
      +0       0       0       0       0       0       0       0       0       0       0       0       0       0       0       
      +0       0       0       0       0       0       0       0       0       0
  2397 ;;      Temps:          1       0       0       0       0       0       0       0       0       0       0       0       
      +0       0       0       0       0       0       0       0       0       0       0       0       0       0       0       
      +0       0       0       0       0       0       0       0       0       0       0       0       0       0       0       
      +0       0       0       0       0       0       0       0       0       0
  2398 ;;      Totals:        26       0       0       0       0       0       0       0       0       0       0       0       
      +0       0       0       0       0       0       0       0       0       0       0       0       0       0       0       
      +0       0       0       0       0       0       0       0       0       0       0       0       0       0       0       
      +0       0       0       0       0       0       0       0       0       0
  2399 ;;Total ram usage:       26 bytes
  2400 ;; Hardware stack levels used:    1
  2401 ;; Hardware stack levels required when called:    4
  2402 ;; This function calls:
  2403 ;;		_CAN1_ReceiveFrom
  2404 ;;		_CAN1_ReceivedMessageCountGet
  2405 ;;		_CAN1_Transmit
  2406 ;;		_CAN1_TransmitFIFOStatusGet
  2407 ;; This function is called by:
  2408 ;;		_CAN1_RX_FIFO_Configuration
  2409 ;;		_CAN1_RXI_ISR
  2410 ;; This function uses a non-reentrant model
  2411 ;;
  2412                           
  2413                           	psect	text21
  2414  003C9A                     __ptext21:
  2415                           	callstack 0
  2416  003C9A                     _DefaultFIFO1NotEmptyHandler:
  2417                           	callstack 117
  2418  003C9A                     
  2419                           ;mcc_generated_files/can1.c: 113:     TU16ACON0bits.ON = 0;
  2420  003C9A  0103               	movlb	3	; () banked
  2421  003C9C  9F87               	bcf	135,7,b	;volatile
  2422  003C9E                     
  2423                           ; BSR set to: 3
  2424                           ;mcc_generated_files/can1.c: 118:     uint8_t PID=0;
  2425  003C9E  0E00               	movlw	0
  2426  003CA0  6E3A               	movwf	DefaultFIFO1NotEmptyHandler@PID^(0+1280),c
  2427                           
  2428                           ;mcc_generated_files/can1.c: 119:     uint8_t numBytes=0;
  2429  003CA2  0E00               	movlw	0
  2430  003CA4  6E29               	movwf	DefaultFIFO1NotEmptyHandler@numBytes^(0+1280),c
  2431  003CA6                     i2l2249:
  2432                           
  2433                           ;mcc_generated_files/can1.c: 121:     {;mcc_generated_files/can1.c: 122:         if(CAN1
      +                          _ReceivedMessageCountGet() > 0)
  2434  003CA6  EC6C  F020         	call	_CAN1_ReceivedMessageCountGet	;wreg free
  2435  003CAA  0900               	iorlw	0
  2436  003CAC  B4D8               	btfsc	status,2,c
  2437  003CAE  EF5B  F01E         	goto	i2u143_41
  2438  003CB2  EF5D  F01E         	goto	i2u143_40
  2439  003CB6                     i2u143_41:
  2440  003CB6  EF53  F01E         	goto	i2l2249
  2441  003CBA                     i2u143_40:
  2442  003CBA                     
  2443                           ;mcc_generated_files/can1.c: 123:         {;mcc_generated_files/can1.c: 124:            
      +                           if(1 == CAN1_ReceiveFrom(FIFO1,&Currently_Processing))
  2444  003CBA  0E33               	movlw	low DefaultFIFO1NotEmptyHandler@Currently_Processing
  2445  003CBC  6E22               	movwf	CAN1_ReceiveFrom@rxCanMsg^(0+1280),c
  2446  003CBE  0E05               	movlw	high DefaultFIFO1NotEmptyHandler@Currently_Processing
  2447  003CC0  6E23               	movwf	(CAN1_ReceiveFrom@rxCanMsg+1)^(0+1280),c
  2448  003CC2  0E01               	movlw	1
  2449  003CC4  EC49  F022         	call	_CAN1_ReceiveFrom
  2450  003CC8  06E8               	decf	wreg,f,c
  2451  003CCA  A4D8               	btfss	status,2,c
  2452  003CCC  EF6A  F01E         	goto	i2u144_41
  2453  003CD0  EF6C  F01E         	goto	i2u144_40
  2454  003CD4                     i2u144_41:
  2455  003CD4  EF53  F01E         	goto	i2l2249
  2456  003CD8                     i2u144_40:
  2457  003CD8                     
  2458                           ;mcc_generated_files/can1.c: 130:     numBytes=Currently_Processing.data[0];
  2459  003CD8  0061  F4E0  F4D9   	movff	DefaultFIFO1NotEmptyHandler@Currently_Processing+5,fsr2l
  2460  003CDE  0061  F4E4  F4DA   	movff	DefaultFIFO1NotEmptyHandler@Currently_Processing+6,fsr2h
  2461  003CE4  50DF               	movf	indf2,w,c
  2462  003CE6  6E29               	movwf	DefaultFIFO1NotEmptyHandler@numBytes^(0+1280),c
  2463  003CE8                     
  2464                           ;mcc_generated_files/can1.c: 131:     mode=Currently_Processing.data[1];
  2465  003CE8  EE20 F001          	lfsr	2,1
  2466  003CEC  5038               	movf	(DefaultFIFO1NotEmptyHandler@Currently_Processing+5)^(0+1280),w,c
  2467  003CEE  26D9               	addwf	fsr2l,f,c
  2468  003CF0  5039               	movf	(DefaultFIFO1NotEmptyHandler@Currently_Processing+6)^(0+1280),w,c
  2469  003CF2  22DA               	addwfc	fsr2h,f,c
  2470  003CF4  50DF               	movf	indf2,w,c
  2471  003CF6  6E2A               	movwf	DefaultFIFO1NotEmptyHandler@mode^(0+1280),c
  2472  003CF8                     
  2473                           ;mcc_generated_files/can1.c: 132:     PID=Currently_Processing.data[2];
  2474  003CF8  EE20 F002          	lfsr	2,2
  2475  003CFC  5038               	movf	(DefaultFIFO1NotEmptyHandler@Currently_Processing+5)^(0+1280),w,c
  2476  003CFE  26D9               	addwf	fsr2l,f,c
  2477  003D00  5039               	movf	(DefaultFIFO1NotEmptyHandler@Currently_Processing+6)^(0+1280),w,c
  2478  003D02  22DA               	addwfc	fsr2h,f,c
  2479  003D04  50DF               	movf	indf2,w,c
  2480  003D06  6E3A               	movwf	DefaultFIFO1NotEmptyHandler@PID^(0+1280),c
  2481  003D08                     
  2482                           ;mcc_generated_files/can1.c: 133:     Return_Message.msgId=0x7E8;
  2483  003D08  0EE8               	movlw	232
  2484  003D0A  6E3B               	movwf	DefaultFIFO1NotEmptyHandler@Return_Message^(0+1280),c
  2485  003D0C  0E07               	movlw	7
  2486  003D0E  6E3C               	movwf	(DefaultFIFO1NotEmptyHandler@Return_Message+1)^(0+1280),c
  2487  003D10  0E00               	movlw	0
  2488  003D12  6E3D               	movwf	(DefaultFIFO1NotEmptyHandler@Return_Message+2)^(0+1280),c
  2489  003D14  0E00               	movlw	0
  2490  003D16  6E3E               	movwf	(DefaultFIFO1NotEmptyHandler@Return_Message+3)^(0+1280),c
  2491  003D18                     
  2492                           ;mcc_generated_files/can1.c: 134:     Return_Message.field.dlc=8;
  2493  003D18  503F               	movf	(DefaultFIFO1NotEmptyHandler@Return_Message+4)^(0+1280),w,c
  2494  003D1A  0BC3               	andlw	-61
  2495  003D1C  0920               	iorlw	32
  2496  003D1E  6E3F               	movwf	(DefaultFIFO1NotEmptyHandler@Return_Message+4)^(0+1280),c
  2497  003D20                     
  2498                           ;mcc_generated_files/can1.c: 135:     Return_Message.field.brs=CAN_BRS_MODE;
  2499  003D20  8E3F               	bsf	(DefaultFIFO1NotEmptyHandler@Return_Message+4)^(0+1280),7,c
  2500  003D22                     
  2501                           ;mcc_generated_files/can1.c: 136:     Return_Message.field.idType=CAN_FRAME_STD;
  2502  003D22  903F               	bcf	(DefaultFIFO1NotEmptyHandler@Return_Message+4)^(0+1280),0,c
  2503  003D24                     
  2504                           ;mcc_generated_files/can1.c: 137:     Return_Message.field.formatType=CAN_FD_FORMAT;
  2505  003D24  8C3F               	bsf	(DefaultFIFO1NotEmptyHandler@Return_Message+4)^(0+1280),6,c
  2506  003D26                     
  2507                           ;mcc_generated_files/can1.c: 138:     Return_Message.field.frameType=CAN_FRAME_DATA;
  2508  003D26  923F               	bcf	(DefaultFIFO1NotEmptyHandler@Return_Message+4)^(0+1280),1,c
  2509  003D28                     
  2510                           ;mcc_generated_files/can1.c: 139:     data_Out[1]=mode+0x40;
  2511  003D28  502A               	movf	DefaultFIFO1NotEmptyHandler@mode^(0+1280),w,c
  2512  003D2A  0F40               	addlw	64
  2513  003D2C  6E2C               	movwf	(DefaultFIFO1NotEmptyHandler@data_Out+1)^(0+1280),c
  2514  003D2E                     
  2515                           ;mcc_generated_files/can1.c: 140:     data_Out[2]=PID;
  2516  003D2E  C53A  F52D         	movff	DefaultFIFO1NotEmptyHandler@PID,DefaultFIFO1NotEmptyHandler@data_Out+2
  2517  003D32                     
  2518                           ;mcc_generated_files/can1.c: 141:     data_Out[7]=0x55;
  2519  003D32  0E55               	movlw	85
  2520  003D34  6E32               	movwf	(DefaultFIFO1NotEmptyHandler@data_Out+7)^(0+1280),c
  2521  003D36                     
  2522                           ;mcc_generated_files/can1.c: 142:     if (mode!=0x01||numBytes!=2)
  2523  003D36  042A               	decf	DefaultFIFO1NotEmptyHandler@mode^(0+1280),w,c
  2524  003D38  A4D8               	btfss	status,2,c
  2525  003D3A  EFA1  F01E         	goto	i2u145_41
  2526  003D3E  EFA3  F01E         	goto	i2u145_40
  2527  003D42                     i2u145_41:
  2528  003D42  EF62  F01F         	goto	i2l121
  2529  003D46                     i2u145_40:
  2530  003D46  0E02               	movlw	2
  2531  003D48  1829               	xorwf	DefaultFIFO1NotEmptyHandler@numBytes^(0+1280),w,c
  2532  003D4A  B4D8               	btfsc	status,2,c
  2533  003D4C  EFAA  F01E         	goto	i2u146_41
  2534  003D50  EFAC  F01E         	goto	i2u146_40
  2535  003D54                     i2u146_41:
  2536  003D54  EFAE  F01E         	goto	i2l2285
  2537  003D58                     i2u146_40:
  2538  003D58  EF62  F01F         	goto	i2l121
  2539  003D5C                     i2l2285:
  2540  003D5C  503A               	movf	DefaultFIFO1NotEmptyHandler@PID^(0+1280),w,c
  2541  003D5E  A4D8               	btfss	status,2,c
  2542  003D60  EFB4  F01E         	goto	i2u147_41
  2543  003D64  EFB6  F01E         	goto	i2u147_40
  2544  003D68                     i2u147_41:
  2545  003D68  EFC2  F01E         	goto	i2l2289
  2546  003D6C                     i2u147_40:
  2547  003D6C                     
  2548                           ;mcc_generated_files/can1.c: 148:     {;mcc_generated_files/can1.c: 149:         data_Ou
      +                          t[0]=6;
  2549  003D6C  0E06               	movlw	6
  2550  003D6E  6E2B               	movwf	DefaultFIFO1NotEmptyHandler@data_Out^(0+1280),c
  2551                           
  2552                           ;mcc_generated_files/can1.c: 150:         data_Out[3]=0x18;
  2553  003D70  0E18               	movlw	24
  2554  003D72  6E2E               	movwf	(DefaultFIFO1NotEmptyHandler@data_Out+3)^(0+1280),c
  2555                           
  2556                           ;mcc_generated_files/can1.c: 151:         data_Out[4]=0x78;
  2557  003D74  0E78               	movlw	120
  2558  003D76  6E2F               	movwf	(DefaultFIFO1NotEmptyHandler@data_Out+4)^(0+1280),c
  2559                           
  2560                           ;mcc_generated_files/can1.c: 152:         data_Out[5]=0x00;
  2561  003D78  0E00               	movlw	0
  2562  003D7A  6E30               	movwf	(DefaultFIFO1NotEmptyHandler@data_Out+5)^(0+1280),c
  2563                           
  2564                           ;mcc_generated_files/can1.c: 153:         data_Out[6]=0x00;
  2565  003D7C  0E00               	movlw	0
  2566  003D7E  6E31               	movwf	(DefaultFIFO1NotEmptyHandler@data_Out+6)^(0+1280),c
  2567                           
  2568                           ;mcc_generated_files/can1.c: 155:     }
  2569  003D80  EF4C  F01F         	goto	i2l2317
  2570  003D84                     i2l2289:
  2571  003D84  0E04               	movlw	4
  2572  003D86  183A               	xorwf	DefaultFIFO1NotEmptyHandler@PID^(0+1280),w,c
  2573  003D88  A4D8               	btfss	status,2,c
  2574  003D8A  EFC9  F01E         	goto	i2u148_41
  2575  003D8E  EFCB  F01E         	goto	i2u148_40
  2576  003D92                     i2u148_41:
  2577  003D92  EFD7  F01E         	goto	i2l2293
  2578  003D96                     i2u148_40:
  2579  003D96                     
  2580                           ;mcc_generated_files/can1.c: 158:     {;mcc_generated_files/can1.c: 159:         data_Ou
      +                          t[0]=3;
  2581  003D96  0E03               	movlw	3
  2582  003D98  6E2B               	movwf	DefaultFIFO1NotEmptyHandler@data_Out^(0+1280),c
  2583                           
  2584                           ;mcc_generated_files/can1.c: 160:         data_Out[3]=191;
  2585  003D9A  0EBF               	movlw	191
  2586  003D9C  6E2E               	movwf	(DefaultFIFO1NotEmptyHandler@data_Out+3)^(0+1280),c
  2587                           
  2588                           ;mcc_generated_files/can1.c: 161:         data_Out[4]=0x55;
  2589  003D9E  0E55               	movlw	85
  2590  003DA0  6E2F               	movwf	(DefaultFIFO1NotEmptyHandler@data_Out+4)^(0+1280),c
  2591                           
  2592                           ;mcc_generated_files/can1.c: 162:         data_Out[5]=0x55;
  2593  003DA2  0E55               	movlw	85
  2594  003DA4  6E30               	movwf	(DefaultFIFO1NotEmptyHandler@data_Out+5)^(0+1280),c
  2595                           
  2596                           ;mcc_generated_files/can1.c: 163:         data_Out[6]=0x55;
  2597  003DA6  0E55               	movlw	85
  2598  003DA8  6E31               	movwf	(DefaultFIFO1NotEmptyHandler@data_Out+6)^(0+1280),c
  2599                           
  2600                           ;mcc_generated_files/can1.c: 164:     }
  2601  003DAA  EF4C  F01F         	goto	i2l2317
  2602  003DAE                     i2l2293:
  2603  003DAE  0E05               	movlw	5
  2604  003DB0  183A               	xorwf	DefaultFIFO1NotEmptyHandler@PID^(0+1280),w,c
  2605  003DB2  A4D8               	btfss	status,2,c
  2606  003DB4  EFDE  F01E         	goto	i2u149_41
  2607  003DB8  EFE0  F01E         	goto	i2u149_40
  2608  003DBC                     i2u149_41:
  2609  003DBC  EFEC  F01E         	goto	i2l2297
  2610  003DC0                     i2u149_40:
  2611  003DC0                     
  2612                           ;mcc_generated_files/can1.c: 167:     {;mcc_generated_files/can1.c: 168:         data_Ou
      +                          t[0]=3;
  2613  003DC0  0E03               	movlw	3
  2614  003DC2  6E2B               	movwf	DefaultFIFO1NotEmptyHandler@data_Out^(0+1280),c
  2615                           
  2616                           ;mcc_generated_files/can1.c: 169:         data_Out[3]=100;
  2617  003DC4  0E64               	movlw	100
  2618  003DC6  6E2E               	movwf	(DefaultFIFO1NotEmptyHandler@data_Out+3)^(0+1280),c
  2619                           
  2620                           ;mcc_generated_files/can1.c: 170:         data_Out[4]=0x55;
  2621  003DC8  0E55               	movlw	85
  2622  003DCA  6E2F               	movwf	(DefaultFIFO1NotEmptyHandler@data_Out+4)^(0+1280),c
  2623                           
  2624                           ;mcc_generated_files/can1.c: 171:         data_Out[5]=0x55;
  2625  003DCC  0E55               	movlw	85
  2626  003DCE  6E30               	movwf	(DefaultFIFO1NotEmptyHandler@data_Out+5)^(0+1280),c
  2627                           
  2628                           ;mcc_generated_files/can1.c: 172:         data_Out[6]=0x55;
  2629  003DD0  0E55               	movlw	85
  2630  003DD2  6E31               	movwf	(DefaultFIFO1NotEmptyHandler@data_Out+6)^(0+1280),c
  2631                           
  2632                           ;mcc_generated_files/can1.c: 173:     }
  2633  003DD4  EF4C  F01F         	goto	i2l2317
  2634  003DD8                     i2l2297:
  2635  003DD8  0E0A               	movlw	10
  2636  003DDA  183A               	xorwf	DefaultFIFO1NotEmptyHandler@PID^(0+1280),w,c
  2637  003DDC  A4D8               	btfss	status,2,c
  2638  003DDE  EFF3  F01E         	goto	i2u150_41
  2639  003DE2  EFF5  F01E         	goto	i2u150_40
  2640  003DE6                     i2u150_41:
  2641  003DE6  EF01  F01F         	goto	i2l2301
  2642  003DEA                     i2u150_40:
  2643  003DEA                     
  2644                           ;mcc_generated_files/can1.c: 176:     {;mcc_generated_files/can1.c: 177:         data_Ou
      +                          t[0]=3;
  2645  003DEA  0E03               	movlw	3
  2646  003DEC  6E2B               	movwf	DefaultFIFO1NotEmptyHandler@data_Out^(0+1280),c
  2647                           
  2648                           ;mcc_generated_files/can1.c: 178:         data_Out[3]=150;
  2649  003DEE  0E96               	movlw	150
  2650  003DF0  6E2E               	movwf	(DefaultFIFO1NotEmptyHandler@data_Out+3)^(0+1280),c
  2651                           
  2652                           ;mcc_generated_files/can1.c: 179:         data_Out[4]=0x55;
  2653  003DF2  0E55               	movlw	85
  2654  003DF4  6E2F               	movwf	(DefaultFIFO1NotEmptyHandler@data_Out+4)^(0+1280),c
  2655                           
  2656                           ;mcc_generated_files/can1.c: 180:         data_Out[5]=0x55;
  2657  003DF6  0E55               	movlw	85
  2658  003DF8  6E30               	movwf	(DefaultFIFO1NotEmptyHandler@data_Out+5)^(0+1280),c
  2659                           
  2660                           ;mcc_generated_files/can1.c: 181:         data_Out[6]=0x55;
  2661  003DFA  0E55               	movlw	85
  2662  003DFC  6E31               	movwf	(DefaultFIFO1NotEmptyHandler@data_Out+6)^(0+1280),c
  2663                           
  2664                           ;mcc_generated_files/can1.c: 182:     }
  2665  003DFE  EF4C  F01F         	goto	i2l2317
  2666  003E02                     i2l2301:
  2667  003E02  0E0B               	movlw	11
  2668  003E04  183A               	xorwf	DefaultFIFO1NotEmptyHandler@PID^(0+1280),w,c
  2669  003E06  A4D8               	btfss	status,2,c
  2670  003E08  EF08  F01F         	goto	i2u151_41
  2671  003E0C  EF0A  F01F         	goto	i2u151_40
  2672  003E10                     i2u151_41:
  2673  003E10  EF16  F01F         	goto	i2l2305
  2674  003E14                     i2u151_40:
  2675  003E14                     
  2676                           ;mcc_generated_files/can1.c: 185:     {;mcc_generated_files/can1.c: 186:         data_Ou
      +                          t[0]=3;
  2677  003E14  0E03               	movlw	3
  2678  003E16  6E2B               	movwf	DefaultFIFO1NotEmptyHandler@data_Out^(0+1280),c
  2679                           
  2680                           ;mcc_generated_files/can1.c: 187:         data_Out[3]=200;
  2681  003E18  0EC8               	movlw	200
  2682  003E1A  6E2E               	movwf	(DefaultFIFO1NotEmptyHandler@data_Out+3)^(0+1280),c
  2683                           
  2684                           ;mcc_generated_files/can1.c: 188:         data_Out[4]=0x55;
  2685  003E1C  0E55               	movlw	85
  2686  003E1E  6E2F               	movwf	(DefaultFIFO1NotEmptyHandler@data_Out+4)^(0+1280),c
  2687                           
  2688                           ;mcc_generated_files/can1.c: 189:         data_Out[5]=0x55;
  2689  003E20  0E55               	movlw	85
  2690  003E22  6E30               	movwf	(DefaultFIFO1NotEmptyHandler@data_Out+5)^(0+1280),c
  2691                           
  2692                           ;mcc_generated_files/can1.c: 190:         data_Out[6]=0x55;
  2693  003E24  0E55               	movlw	85
  2694  003E26  6E31               	movwf	(DefaultFIFO1NotEmptyHandler@data_Out+6)^(0+1280),c
  2695                           
  2696                           ;mcc_generated_files/can1.c: 191:     }
  2697  003E28  EF4C  F01F         	goto	i2l2317
  2698  003E2C                     i2l2305:
  2699  003E2C  0E0C               	movlw	12
  2700  003E2E  183A               	xorwf	DefaultFIFO1NotEmptyHandler@PID^(0+1280),w,c
  2701  003E30  A4D8               	btfss	status,2,c
  2702  003E32  EF1D  F01F         	goto	i2u152_41
  2703  003E36  EF1F  F01F         	goto	i2u152_40
  2704  003E3A                     i2u152_41:
  2705  003E3A  EF2B  F01F         	goto	i2l2309
  2706  003E3E                     i2u152_40:
  2707  003E3E                     
  2708                           ;mcc_generated_files/can1.c: 194:     {;mcc_generated_files/can1.c: 195:         data_Ou
      +                          t[0]=4;
  2709  003E3E  0E04               	movlw	4
  2710  003E40  6E2B               	movwf	DefaultFIFO1NotEmptyHandler@data_Out^(0+1280),c
  2711                           
  2712                           ;mcc_generated_files/can1.c: 196:         data_Out[3]=54;
  2713  003E42  0E36               	movlw	54
  2714  003E44  6E2E               	movwf	(DefaultFIFO1NotEmptyHandler@data_Out+3)^(0+1280),c
  2715                           
  2716                           ;mcc_generated_files/can1.c: 197:         data_Out[4]=176;
  2717  003E46  0EB0               	movlw	176
  2718  003E48  6E2F               	movwf	(DefaultFIFO1NotEmptyHandler@data_Out+4)^(0+1280),c
  2719                           
  2720                           ;mcc_generated_files/can1.c: 198:         data_Out[5]=0x55;
  2721  003E4A  0E55               	movlw	85
  2722  003E4C  6E30               	movwf	(DefaultFIFO1NotEmptyHandler@data_Out+5)^(0+1280),c
  2723                           
  2724                           ;mcc_generated_files/can1.c: 199:         data_Out[6]=0x55;
  2725  003E4E  0E55               	movlw	85
  2726  003E50  6E31               	movwf	(DefaultFIFO1NotEmptyHandler@data_Out+6)^(0+1280),c
  2727                           
  2728                           ;mcc_generated_files/can1.c: 200:     }
  2729  003E52  EF4C  F01F         	goto	i2l2317
  2730  003E56                     i2l2309:
  2731  003E56  0E0D               	movlw	13
  2732  003E58  183A               	xorwf	DefaultFIFO1NotEmptyHandler@PID^(0+1280),w,c
  2733  003E5A  A4D8               	btfss	status,2,c
  2734  003E5C  EF32  F01F         	goto	i2u153_41
  2735  003E60  EF34  F01F         	goto	i2u153_40
  2736  003E64                     i2u153_41:
  2737  003E64  EF40  F01F         	goto	i2l2313
  2738  003E68                     i2u153_40:
  2739  003E68                     
  2740                           ;mcc_generated_files/can1.c: 203:     {;mcc_generated_files/can1.c: 204:         data_Ou
      +                          t[0]=3;
  2741  003E68  0E03               	movlw	3
  2742  003E6A  6E2B               	movwf	DefaultFIFO1NotEmptyHandler@data_Out^(0+1280),c
  2743                           
  2744                           ;mcc_generated_files/can1.c: 205:         data_Out[3]=70;
  2745  003E6C  0E46               	movlw	70
  2746  003E6E  6E2E               	movwf	(DefaultFIFO1NotEmptyHandler@data_Out+3)^(0+1280),c
  2747                           
  2748                           ;mcc_generated_files/can1.c: 206:         data_Out[4]=0x55;
  2749  003E70  0E55               	movlw	85
  2750  003E72  6E2F               	movwf	(DefaultFIFO1NotEmptyHandler@data_Out+4)^(0+1280),c
  2751                           
  2752                           ;mcc_generated_files/can1.c: 207:         data_Out[5]=0x55;
  2753  003E74  0E55               	movlw	85
  2754  003E76  6E30               	movwf	(DefaultFIFO1NotEmptyHandler@data_Out+5)^(0+1280),c
  2755                           
  2756                           ;mcc_generated_files/can1.c: 208:         data_Out[6]=0x55;
  2757  003E78  0E55               	movlw	85
  2758  003E7A  6E31               	movwf	(DefaultFIFO1NotEmptyHandler@data_Out+6)^(0+1280),c
  2759                           
  2760                           ;mcc_generated_files/can1.c: 209:     }
  2761  003E7C  EF4C  F01F         	goto	i2l2317
  2762  003E80                     i2l2313:
  2763  003E80  283A               	incf	DefaultFIFO1NotEmptyHandler@PID^(0+1280),w,c
  2764  003E82  A4D8               	btfss	status,2,c
  2765  003E84  EF46  F01F         	goto	i2u154_41
  2766  003E88  EF48  F01F         	goto	i2u154_40
  2767  003E8C                     i2u154_41:
  2768  003E8C  EF4C  F01F         	goto	i2l132
  2769  003E90                     i2u154_40:
  2770  003E90                     
  2771                           ;mcc_generated_files/can1.c: 212:     {;mcc_generated_files/can1.c: 213:         TU16ACO
      +                          N0bits.ON = 1;
  2772  003E90  0103               	movlb	3	; () banked
  2773  003E92  8F87               	bsf	135,7,b	;volatile
  2774                           
  2775                           ;mcc_generated_files/can1.c: 214:         return;
  2776  003E94  EF62  F01F         	goto	i2l121
  2777  003E98                     i2l132:
  2778  003E98                     i2l2317:
  2779                           
  2780                           ;mcc_generated_files/can1.c: 216:         Return_Message.data=data_Out;
  2781  003E98  0E2B               	movlw	low DefaultFIFO1NotEmptyHandler@data_Out
  2782  003E9A  6E40               	movwf	(DefaultFIFO1NotEmptyHandler@Return_Message+5)^(0+1280),c
  2783  003E9C  0E05               	movlw	high DefaultFIFO1NotEmptyHandler@data_Out
  2784  003E9E  6E41               	movwf	(DefaultFIFO1NotEmptyHandler@Return_Message+6)^(0+1280),c
  2785  003EA0                     
  2786                           ;mcc_generated_files/can1.c: 217:         if(CAN_TX_FIFO_AVAILABLE == (CAN1_TransmitFIFO
      +                          StatusGet(TXQ) & CAN_TX_FIFO_AVAILABLE))
  2787  003EA0  0E00               	movlw	0
  2788  003EA2  ECA2  F023         	call	_CAN1_TransmitFIFOStatusGet
  2789  003EA6  6E28               	movwf	??_DefaultFIFO1NotEmptyHandler^(0+1280),c
  2790  003EA8  A028               	btfss	??_DefaultFIFO1NotEmptyHandler^(0+1280),0,c
  2791  003EAA  EF59  F01F         	goto	i2u155_41
  2792  003EAE  EF5B  F01F         	goto	i2u155_40
  2793  003EB2                     i2u155_41:
  2794  003EB2  EF62  F01F         	goto	i2l121
  2795  003EB6                     i2u155_40:
  2796  003EB6                     
  2797                           ;mcc_generated_files/can1.c: 218:         {;mcc_generated_files/can1.c: 219:            
      +                           CAN1_Transmit(TXQ, &Return_Message);
  2798  003EB6  0E3B               	movlw	low DefaultFIFO1NotEmptyHandler@Return_Message
  2799  003EB8  6E18               	movwf	CAN1_Transmit@txCanMsg^(0+1280),c
  2800  003EBA  0E05               	movlw	high DefaultFIFO1NotEmptyHandler@Return_Message
  2801  003EBC  6E19               	movwf	(CAN1_Transmit@txCanMsg+1)^(0+1280),c
  2802  003EBE  0E00               	movlw	0
  2803  003EC0  EC1D  F021         	call	_CAN1_Transmit
  2804  003EC4                     i2l121:
  2805  003EC4  0012               	return		;funcret
  2806  003EC6                     __end_of_DefaultFIFO1NotEmptyHandler:
  2807                           	callstack 0
  2808                           
  2809 ;; *************** function _CAN1_TransmitFIFOStatusGet *****************
  2810 ;; Defined at:
  2811 ;;		line 641 in file "mcc_generated_files/can1.c"
  2812 ;; Parameters:    Size  Location     Type
  2813 ;;  fifoChannel     1    wreg     const enum E23100
  2814 ;; Auto vars:     Size  Location     Type
  2815 ;;  fifoChannel     1    3[COMRAM] const enum E23100
  2816 ;;  status          1    2[COMRAM] enum E23078
  2817 ;; Return value:  Size  Location     Type
  2818 ;;                  1    wreg      enum E23078
  2819 ;; Registers used:
  2820 ;;		wreg, fsr2l, fsr2h, status,2, status,0, prodl, prodh, cstack
  2821 ;; Tracked objects:
  2822 ;;		On entry : 0/0
  2823 ;;		On exit  : 0/0
  2824 ;;		Unchanged: 0/0
  2825 ;; Data sizes:     COMRAM   BANK5   BANK6   BANK7   BANK8   BANK9  BANK10  BANK11  BANK12  BANK13  BANK14  BANK15  BANK1
      +6  BANK17  BANK18  BANK19  BANK20  BANK21  BANK22  BANK23  BANK24  BANK25  BANK26  BANK27  BANK28  BANK29  BANK30  BANK3
      +1  BANK32  BANK33  BANK34  BANK35  BANK36  BANK37  BANK38  BANK39  BANK40  BANK41  BANK42  BANK43  BANK44  BANK45  BANK4
      +6  BANK47  BANK48  BANK49  BANK50  BANK51  BANK52  BANK53  BANK54  BANK55
  2826 ;;      Params:         0       0       0       0       0       0       0       0       0       0       0       0       
      +0       0       0       0       0       0       0       0       0       0       0       0       0       0       0       
      +0       0       0       0       0       0       0       0       0       0       0       0       0       0       0       
      +0       0       0       0       0       0       0       0       0       0
  2827 ;;      Locals:         2       0       0       0       0       0       0       0       0       0       0       0       
      +0       0       0       0       0       0       0       0       0       0       0       0       0       0       0       
      +0       0       0       0       0       0       0       0       0       0       0       0       0       0       0       
      +0       0       0       0       0       0       0       0       0       0
  2828 ;;      Temps:          0       0       0       0       0       0       0       0       0       0       0       0       
      +0       0       0       0       0       0       0       0       0       0       0       0       0       0       0       
      +0       0       0       0       0       0       0       0       0       0       0       0       0       0       0       
      +0       0       0       0       0       0       0       0       0       0
  2829 ;;      Totals:         2       0       0       0       0       0       0       0       0       0       0       0       
      +0       0       0       0       0       0       0       0       0       0       0       0       0       0       0       
      +0       0       0       0       0       0       0       0       0       0       0       0       0       0       0       
      +0       0       0       0       0       0       0       0       0       0
  2830 ;;Total ram usage:        2 bytes
  2831 ;; Hardware stack levels used:    1
  2832 ;; Hardware stack levels required when called:    1
  2833 ;; This function calls:
  2834 ;;		_GetTxFifoStatus
  2835 ;;		_isTxChannel
  2836 ;; This function is called by:
  2837 ;;		_DefaultFIFO1NotEmptyHandler
  2838 ;;		_TU16A_DefaultInterruptHandler
  2839 ;; This function uses a non-reentrant model
  2840 ;;
  2841                           
  2842                           	psect	text22
  2843  004744                     __ptext22:
  2844                           	callstack 0
  2845  004744                     _CAN1_TransmitFIFOStatusGet:
  2846                           	callstack 119
  2847                           
  2848                           ;incstack = 0
  2849                           ;CAN1_TransmitFIFOStatusGet@fifoChannel stored from wreg
  2850  004744  6E04               	movwf	CAN1_TransmitFIFOStatusGet@fifoChannel^(0+1280),c
  2851  004746                     
  2852                           ;mcc_generated_files/can1.c: 641: CAN_TX_FIFO_STATUS CAN1_TransmitFIFOStatusGet(const CA
      +                          N1_TX_FIFO_CHANNELS fifoChannel);mcc_generated_files/can1.c: 642: {;mcc_generated_files/
      +                          can1.c: 643:     CAN_TX_FIFO_STATUS status = CAN_TX_FIFO_FULL;
  2853  004746  0E00               	movlw	0
  2854  004748  6E03               	movwf	CAN1_TransmitFIFOStatusGet@status^(0+1280),c
  2855  00474A                     
  2856                           ;mcc_generated_files/can1.c: 645:     if (isTxChannel(fifoChannel))
  2857  00474A  5004               	movf	CAN1_TransmitFIFOStatusGet@fifoChannel^(0+1280),w,c
  2858  00474C  EC15  F023         	call	_isTxChannel
  2859  004750  0900               	iorlw	0
  2860  004752  B4D8               	btfsc	status,2,c
  2861  004754  EFAE  F023         	goto	i2u133_41
  2862  004758  EFB0  F023         	goto	i2u133_40
  2863  00475C                     i2u133_41:
  2864  00475C  EFB4  F023         	goto	i2l2173
  2865  004760                     i2u133_40:
  2866  004760                     
  2867                           ;mcc_generated_files/can1.c: 646:     {;mcc_generated_files/can1.c: 647:         status 
      +                          = GetTxFifoStatus(fifoChannel);
  2868  004760  5004               	movf	CAN1_TransmitFIFOStatusGet@fifoChannel^(0+1280),w,c
  2869  004762  ECF8  F023         	call	_GetTxFifoStatus
  2870  004766  6E03               	movwf	CAN1_TransmitFIFOStatusGet@status^(0+1280),c
  2871  004768                     i2l2173:
  2872                           
  2873                           ;mcc_generated_files/can1.c: 650:     return status;
  2874  004768  5003               	movf	CAN1_TransmitFIFOStatusGet@status^(0+1280),w,c
  2875  00476A  0012               	return		;funcret
  2876  00476C                     __end_of_CAN1_TransmitFIFOStatusGet:
  2877                           	callstack 0
  2878                           
  2879 ;; *************** function _CAN1_Transmit *****************
  2880 ;; Defined at:
  2881 ;;		line 619 in file "mcc_generated_files/can1.c"
  2882 ;; Parameters:    Size  Location     Type
  2883 ;;  fifoChannel     1    wreg     const enum E23100
  2884 ;;  txCanMsg        2   23[COMRAM] PTR struct .
  2885 ;;		 -> TU16A_DefaultInterruptHandler@Transmission(7), DefaultFIFO1NotEmptyHandler@Return_Message(7), 
  2886 ;; Auto vars:     Size  Location     Type
  2887 ;;  fifoChannel     1   28[COMRAM] const enum E23100
  2888 ;;  txFifoObj       2   26[COMRAM] PTR unsigned char 
  2889 ;;		 -> RAM(14335), 
  2890 ;;  status          1   25[COMRAM] enum E23057
  2891 ;; Return value:  Size  Location     Type
  2892 ;;                  1    wreg      enum E23057
  2893 ;; Registers used:
  2894 ;;		wreg, fsr1l, fsr1h, fsr2l, fsr2h, status,2, status,0, tblptrl, tblptrh, tblptru, prodl, prodh, cstack
  2895 ;; Tracked objects:
  2896 ;;		On entry : 0/0
  2897 ;;		On exit  : 0/0
  2898 ;;		Unchanged: 0/0
  2899 ;; Data sizes:     COMRAM   BANK5   BANK6   BANK7   BANK8   BANK9  BANK10  BANK11  BANK12  BANK13  BANK14  BANK15  BANK1
      +6  BANK17  BANK18  BANK19  BANK20  BANK21  BANK22  BANK23  BANK24  BANK25  BANK26  BANK27  BANK28  BANK29  BANK30  BANK3
      +1  BANK32  BANK33  BANK34  BANK35  BANK36  BANK37  BANK38  BANK39  BANK40  BANK41  BANK42  BANK43  BANK44  BANK45  BANK4
      +6  BANK47  BANK48  BANK49  BANK50  BANK51  BANK52  BANK53  BANK54  BANK55
  2900 ;;      Params:         2       0       0       0       0       0       0       0       0       0       0       0       
      +0       0       0       0       0       0       0       0       0       0       0       0       0       0       0       
      +0       0       0       0       0       0       0       0       0       0       0       0       0       0       0       
      +0       0       0       0       0       0       0       0       0       0
  2901 ;;      Locals:         4       0       0       0       0       0       0       0       0       0       0       0       
      +0       0       0       0       0       0       0       0       0       0       0       0       0       0       0       
      +0       0       0       0       0       0       0       0       0       0       0       0       0       0       0       
      +0       0       0       0       0       0       0       0       0       0
  2902 ;;      Temps:          0       0       0       0       0       0       0       0       0       0       0       0       
      +0       0       0       0       0       0       0       0       0       0       0       0       0       0       0       
      +0       0       0       0       0       0       0       0       0       0       0       0       0       0       0       
      +0       0       0       0       0       0       0       0       0       0
  2903 ;;      Totals:         6       0       0       0       0       0       0       0       0       0       0       0       
      +0       0       0       0       0       0       0       0       0       0       0       0       0       0       0       
      +0       0       0       0       0       0       0       0       0       0       0       0       0       0       0       
      +0       0       0       0       0       0       0       0       0       0
  2904 ;;Total ram usage:        6 bytes
  2905 ;; Hardware stack levels used:    1
  2906 ;; Hardware stack levels required when called:    2
  2907 ;; This function calls:
  2908 ;;		_ValidateTransmission
  2909 ;;		_WriteMessageToFifo
  2910 ;;		_isTxChannel
  2911 ;; This function is called by:
  2912 ;;		_DefaultFIFO1NotEmptyHandler
  2913 ;;		_TU16A_DefaultInterruptHandler
  2914 ;; This function uses a non-reentrant model
  2915 ;;
  2916                           
  2917                           	psect	text23
  2918  00423A                     __ptext23:
  2919                           	callstack 0
  2920  00423A                     _CAN1_Transmit:
  2921                           	callstack 118
  2922                           
  2923                           ;incstack = 0
  2924                           ;CAN1_Transmit@fifoChannel stored from wreg
  2925  00423A  6E1D               	movwf	CAN1_Transmit@fifoChannel^(0+1280),c
  2926  00423C                     
  2927                           ;mcc_generated_files/can1.c: 623:     if (isTxChannel(fifoChannel))
  2928  00423C  501D               	movf	CAN1_Transmit@fifoChannel^(0+1280),w,c
  2929  00423E  EC15  F023         	call	_isTxChannel
  2930  004242  0900               	iorlw	0
  2931  004244  B4D8               	btfsc	status,2,c
  2932  004246  EF27  F021         	goto	i2u134_41
  2933  00424A  EF29  F021         	goto	i2u134_40
  2934  00424E                     i2u134_41:
  2935  00424E  EF66  F021         	goto	i2l245
  2936  004252                     i2u134_40:
  2937  004252                     
  2938                           ;mcc_generated_files/can1.c: 624:     {;mcc_generated_files/can1.c: 625:         status 
      +                          = ValidateTransmission(fifoChannel, txCanMsg);
  2939  004252  C518  F502         	movff	CAN1_Transmit@txCanMsg,ValidateTransmission@txCanMsg
  2940  004256  C519  F503         	movff	CAN1_Transmit@txCanMsg+1,ValidateTransmission@txCanMsg+1
  2941  00425A  501D               	movf	CAN1_Transmit@fifoChannel^(0+1280),w,c
  2942  00425C  EC63  F01F         	call	_ValidateTransmission
  2943  004260  6E1A               	movwf	CAN1_Transmit@status^(0+1280),c
  2944  004262                     
  2945                           ;mcc_generated_files/can1.c: 626:         if (CAN_TX_MSG_REQUEST_SUCCESS == status)
  2946  004262  501A               	movf	CAN1_Transmit@status^(0+1280),w,c
  2947  004264  A4D8               	btfss	status,2,c
  2948  004266  EF37  F021         	goto	i2u135_41
  2949  00426A  EF39  F021         	goto	i2u135_40
  2950  00426E                     i2u135_41:
  2951  00426E  EF66  F021         	goto	i2l245
  2952  004272                     i2u135_40:
  2953  004272                     
  2954                           ;mcc_generated_files/can1.c: 627:         {;mcc_generated_files/can1.c: 628:            
      +                           uint8_t *txFifoObj = (uint8_t *) FIFO[fifoChannel].UA;
  2955  004272  501D               	movf	CAN1_Transmit@fifoChannel^(0+1280),w,c
  2956  004274  0D0C               	mullw	12
  2957  004276  0E58               	movlw	88
  2958  004278  24F3               	addwf	243,w,c
  2959  00427A  6ED9               	movwf	fsr2l,c
  2960  00427C  0E01               	movlw	1
  2961  00427E  20F4               	addwfc	prodh,w,c
  2962  004280  6EDA               	movwf	fsr2h,c
  2963  004282  0061 F378  F51B    	movff	postinc2,CAN1_Transmit@txFifoObj
  2964  004288  0061 F374  F51C    	movff	postdec2,CAN1_Transmit@txFifoObj+1
  2965  00428E                     
  2966                           ;mcc_generated_files/can1.c: 630:             if (txFifoObj != ((void*)0))
  2967  00428E  501B               	movf	CAN1_Transmit@txFifoObj^(0+1280),w,c
  2968  004290  101C               	iorwf	(CAN1_Transmit@txFifoObj+1)^(0+1280),w,c
  2969  004292  B4D8               	btfsc	status,2,c
  2970  004294  EF4E  F021         	goto	i2u136_41
  2971  004298  EF50  F021         	goto	i2u136_40
  2972  00429C                     i2u136_41:
  2973  00429C  EF66  F021         	goto	i2l242
  2974  0042A0                     i2u136_40:
  2975  0042A0                     
  2976                           ;mcc_generated_files/can1.c: 631:             {;mcc_generated_files/can1.c: 632:        
      +                                   WriteMessageToFifo(txFifoObj, txCanMsg);
  2977  0042A0  C51B  F50C         	movff	CAN1_Transmit@txFifoObj,WriteMessageToFifo@txFifoObj
  2978  0042A4  C51C  F50D         	movff	CAN1_Transmit@txFifoObj+1,WriteMessageToFifo@txFifoObj+1
  2979  0042A8  C518  F50E         	movff	CAN1_Transmit@txCanMsg,WriteMessageToFifo@txCanMsg
  2980  0042AC  C519  F50F         	movff	CAN1_Transmit@txCanMsg+1,WriteMessageToFifo@txCanMsg+1
  2981  0042B0  EC0A  F01C         	call	_WriteMessageToFifo	;wreg free
  2982  0042B4                     
  2983                           ;mcc_generated_files/can1.c: 633:                 FIFO[fifoChannel].CONH |= (0x2 | 0x1);
  2984  0042B4  501D               	movf	CAN1_Transmit@fifoChannel^(0+1280),w,c
  2985  0042B6  0D0C               	mullw	12
  2986  0042B8  0E51               	movlw	81
  2987  0042BA  24F3               	addwf	243,w,c
  2988  0042BC  6ED9               	movwf	fsr2l,c
  2989  0042BE  0E01               	movlw	1
  2990  0042C0  20F4               	addwfc	prodh,w,c
  2991  0042C2  6EDA               	movwf	fsr2h,c
  2992  0042C4  0E03               	movlw	3
  2993  0042C6  12DF               	iorwf	indf2,f,c
  2994  0042C8  EF66  F021         	goto	i2l245
  2995  0042CC                     i2l242:
  2996  0042CC                     i2l245:
  2997  0042CC  0012               	return		;funcret
  2998  0042CE                     __end_of_CAN1_Transmit:
  2999                           	callstack 0
  3000                           
  3001 ;; *************** function _isTxChannel *****************
  3002 ;; Defined at:
  3003 ;;		line 539 in file "mcc_generated_files/can1.c"
  3004 ;; Parameters:    Size  Location     Type
  3005 ;;  channel         1    wreg     unsigned char 
  3006 ;; Auto vars:     Size  Location     Type
  3007 ;;  channel         1    1[COMRAM] unsigned char 
  3008 ;; Return value:  Size  Location     Type
  3009 ;;                  1    wreg      _Bool 
  3010 ;; Registers used:
  3011 ;;		wreg, fsr2l, fsr2h, status,2, status,0, prodl, prodh
  3012 ;; Tracked objects:
  3013 ;;		On entry : 0/0
  3014 ;;		On exit  : 0/0
  3015 ;;		Unchanged: 0/0
  3016 ;; Data sizes:     COMRAM   BANK5   BANK6   BANK7   BANK8   BANK9  BANK10  BANK11  BANK12  BANK13  BANK14  BANK15  BANK1
      +6  BANK17  BANK18  BANK19  BANK20  BANK21  BANK22  BANK23  BANK24  BANK25  BANK26  BANK27  BANK28  BANK29  BANK30  BANK3
      +1  BANK32  BANK33  BANK34  BANK35  BANK36  BANK37  BANK38  BANK39  BANK40  BANK41  BANK42  BANK43  BANK44  BANK45  BANK4
      +6  BANK47  BANK48  BANK49  BANK50  BANK51  BANK52  BANK53  BANK54  BANK55
  3017 ;;      Params:         0       0       0       0       0       0       0       0       0       0       0       0       
      +0       0       0       0       0       0       0       0       0       0       0       0       0       0       0       
      +0       0       0       0       0       0       0       0       0       0       0       0       0       0       0       
      +0       0       0       0       0       0       0       0       0       0
  3018 ;;      Locals:         2       0       0       0       0       0       0       0       0       0       0       0       
      +0       0       0       0       0       0       0       0       0       0       0       0       0       0       0       
      +0       0       0       0       0       0       0       0       0       0       0       0       0       0       0       
      +0       0       0       0       0       0       0       0       0       0
  3019 ;;      Temps:          0       0       0       0       0       0       0       0       0       0       0       0       
      +0       0       0       0       0       0       0       0       0       0       0       0       0       0       0       
      +0       0       0       0       0       0       0       0       0       0       0       0       0       0       0       
      +0       0       0       0       0       0       0       0       0       0
  3020 ;;      Totals:         2       0       0       0       0       0       0       0       0       0       0       0       
      +0       0       0       0       0       0       0       0       0       0       0       0       0       0       0       
      +0       0       0       0       0       0       0       0       0       0       0       0       0       0       0       
      +0       0       0       0       0       0       0       0       0       0
  3021 ;;Total ram usage:        2 bytes
  3022 ;; Hardware stack levels used:    1
  3023 ;; This function calls:
  3024 ;;		Nothing
  3025 ;; This function is called by:
  3026 ;;		_CAN1_Transmit
  3027 ;;		_CAN1_TransmitFIFOStatusGet
  3028 ;; This function uses a non-reentrant model
  3029 ;;
  3030                           
  3031                           	psect	text24
  3032  00462A                     __ptext24:
  3033                           	callstack 0
  3034  00462A                     _isTxChannel:
  3035                           	callstack 119
  3036                           
  3037                           ;incstack = 0
  3038                           ;isTxChannel@channel stored from wreg
  3039  00462A  6E02               	movwf	isTxChannel@channel^(0+1280),c
  3040  00462C                     
  3041                           ;mcc_generated_files/can1.c: 539: static _Bool isTxChannel(uint8_t channel);mcc_generate
      +                          d_files/can1.c: 540: {;mcc_generated_files/can1.c: 541:     return channel < 4u && (FIFO
      +                          [channel].CONL & 0x80);
  3042  00462C  0E00               	movlw	0
  3043  00462E  6E01               	movwf	_isTxChannel$620^(0+1280),c
  3044  004630  0E04               	movlw	4
  3045  004632  6002               	cpfslt	isTxChannel@channel^(0+1280),c
  3046  004634  EF1E  F023         	goto	i2u104_41
  3047  004638  EF20  F023         	goto	i2u104_40
  3048  00463C                     i2u104_41:
  3049  00463C  EF32  F023         	goto	i2l218
  3050  004640                     i2u104_40:
  3051  004640  5002               	movf	isTxChannel@channel^(0+1280),w,c
  3052  004642  0D0C               	mullw	12
  3053  004644  0E50               	movlw	80
  3054  004646  24F3               	addwf	243,w,c
  3055  004648  6ED9               	movwf	fsr2l,c
  3056  00464A  0E01               	movlw	1
  3057  00464C  20F4               	addwfc	prodh,w,c
  3058  00464E  6EDA               	movwf	fsr2h,c
  3059  004650  0101               	movlb	1	; () banked
  3060  004652  AEDF               	btfss	indf2,7,c
  3061  004654  EF2E  F023         	goto	i2u105_41
  3062  004658  EF30  F023         	goto	i2u105_40
  3063  00465C                     i2u105_41:
  3064  00465C  EF32  F023         	goto	i2l218
  3065  004660                     i2u105_40:
  3066  004660                     
  3067                           ; BSR set to: 1
  3068  004660  0E01               	movlw	1
  3069  004662  6E01               	movwf	_isTxChannel$620^(0+1280),c
  3070  004664                     i2l218:
  3071  004664  5001               	movf	_isTxChannel$620^(0+1280),w,c
  3072  004666  0012               	return		;funcret
  3073  004668                     __end_of_isTxChannel:
  3074                           	callstack 0
  3075                           
  3076 ;; *************** function _WriteMessageToFifo *****************
  3077 ;; Defined at:
  3078 ;;		line 549 in file "mcc_generated_files/can1.c"
  3079 ;; Parameters:    Size  Location     Type
  3080 ;;  txFifoObj       2   11[COMRAM] PTR unsigned char 
  3081 ;;		 -> RAM(14335), 
  3082 ;;  txCanMsg        2   13[COMRAM] PTR struct .
  3083 ;;		 -> TU16A_DefaultInterruptHandler@Transmission(7), DefaultFIFO1NotEmptyHandler@Return_Message(7), 
  3084 ;; Auto vars:     Size  Location     Type
  3085 ;;  msgId           4   19[COMRAM] unsigned long 
  3086 ;;  status          1   18[COMRAM] unsigned char 
  3087 ;;  payloadOffse    1    0        const unsigned char 
  3088 ;; Return value:  Size  Location     Type
  3089 ;;                  1    wreg      void 
  3090 ;; Registers used:
  3091 ;;		wreg, fsr1l, fsr1h, fsr2l, fsr2h, status,2, status,0, tblptrl, tblptrh, tblptru, cstack
  3092 ;; Tracked objects:
  3093 ;;		On entry : 0/0
  3094 ;;		On exit  : 0/0
  3095 ;;		Unchanged: 0/0
  3096 ;; Data sizes:     COMRAM   BANK5   BANK6   BANK7   BANK8   BANK9  BANK10  BANK11  BANK12  BANK13  BANK14  BANK15  BANK1
      +6  BANK17  BANK18  BANK19  BANK20  BANK21  BANK22  BANK23  BANK24  BANK25  BANK26  BANK27  BANK28  BANK29  BANK30  BANK3
      +1  BANK32  BANK33  BANK34  BANK35  BANK36  BANK37  BANK38  BANK39  BANK40  BANK41  BANK42  BANK43  BANK44  BANK45  BANK4
      +6  BANK47  BANK48  BANK49  BANK50  BANK51  BANK52  BANK53  BANK54  BANK55
  3097 ;;      Params:         4       0       0       0       0       0       0       0       0       0       0       0       
      +0       0       0       0       0       0       0       0       0       0       0       0       0       0       0       
      +0       0       0       0       0       0       0       0       0       0       0       0       0       0       0       
      +0       0       0       0       0       0       0       0       0       0
  3098 ;;      Locals:         6       0       0       0       0       0       0       0       0       0       0       0       
      +0       0       0       0       0       0       0       0       0       0       0       0       0       0       0       
      +0       0       0       0       0       0       0       0       0       0       0       0       0       0       0       
      +0       0       0       0       0       0       0       0       0       0
  3099 ;;      Temps:          2       0       0       0       0       0       0       0       0       0       0       0       
      +0       0       0       0       0       0       0       0       0       0       0       0       0       0       0       
      +0       0       0       0       0       0       0       0       0       0       0       0       0       0       0       
      +0       0       0       0       0       0       0       0       0       0
  3100 ;;      Totals:        12       0       0       0       0       0       0       0       0       0       0       0       
      +0       0       0       0       0       0       0       0       0       0       0       0       0       0       0       
      +0       0       0       0       0       0       0       0       0       0       0       0       0       0       0       
      +0       0       0       0       0       0       0       0       0       0
  3101 ;;Total ram usage:       12 bytes
  3102 ;; Hardware stack levels used:    1
  3103 ;; Hardware stack levels required when called:    1
  3104 ;; This function calls:
  3105 ;;		_memcpy
  3106 ;; This function is called by:
  3107 ;;		_CAN1_Transmit
  3108 ;; This function uses a non-reentrant model
  3109 ;;
  3110                           
  3111                           	psect	text25
  3112  003814                     __ptext25:
  3113                           	callstack 0
  3114  003814                     _WriteMessageToFifo:
  3115                           	callstack 118
  3116  003814                     
  3117                           ;mcc_generated_files/can1.c: 549: static void WriteMessageToFifo(uint8_t *txFifoObj, CAN
      +                          _MSG_OBJ *txCanMsg);mcc_generated_files/can1.c: 550: {;mcc_generated_files/can1.c: 551: 
      +                              uint32_t msgId = txCanMsg->msgId;
  3118  003814  0061  F438  F4D9   	movff	WriteMessageToFifo@txCanMsg,fsr2l
  3119  00381A  0061  F43C  F4DA   	movff	WriteMessageToFifo@txCanMsg+1,fsr2h
  3120  003820  0061 F378  F514    	movff	postinc2,WriteMessageToFifo@msgId
  3121  003826  0061 F378  F515    	movff	postinc2,WriteMessageToFifo@msgId+1
  3122  00382C  0061 F378  F516    	movff	postinc2,WriteMessageToFifo@msgId+2
  3123  003832  0061 F378  F517    	movff	postinc2,WriteMessageToFifo@msgId+3
  3124  003838                     
  3125                           ;mcc_generated_files/can1.c: 559:     if (CAN_FRAME_EXT == txCanMsg->field.idType)
  3126  003838  EE20 F004          	lfsr	2,4
  3127  00383C  500E               	movf	WriteMessageToFifo@txCanMsg^(0+1280),w,c
  3128  00383E  26D9               	addwf	fsr2l,f,c
  3129  003840  500F               	movf	(WriteMessageToFifo@txCanMsg+1)^(0+1280),w,c
  3130  003842  22DA               	addwfc	fsr2h,f,c
  3131  003844  A0DF               	btfss	indf2,0,c
  3132  003846  EF27  F01C         	goto	i2u106_41
  3133  00384A  EF29  F01C         	goto	i2u106_40
  3134  00384E                     i2u106_41:
  3135  00384E  EF63  F01C         	goto	i2l2055
  3136  003852                     i2u106_40:
  3137  003852                     
  3138                           ;mcc_generated_files/can1.c: 560:     {;mcc_generated_files/can1.c: 561:         txFifoO
      +                          bj[1] = (msgId << (3U)) & (0xF8U);
  3139  003852  EE20 F001          	lfsr	2,1
  3140  003856  500C               	movf	WriteMessageToFifo@txFifoObj^(0+1280),w,c
  3141  003858  26D9               	addwf	fsr2l,f,c
  3142  00385A  500D               	movf	(WriteMessageToFifo@txFifoObj+1)^(0+1280),w,c
  3143  00385C  22DA               	addwfc	fsr2h,f,c
  3144  00385E  3814               	swapf	WriteMessageToFifo@msgId^(0+1280),w,c
  3145  003860  42E8               	rrncf	wreg,f,c
  3146  003862  0BF8               	andlw	248
  3147  003864  0BF8               	andlw	248
  3148  003866  6EDF               	movwf	indf2,c
  3149  003868                     
  3150                           ;mcc_generated_files/can1.c: 562:         msgId >>= (5U);
  3151  003868  0E05               	movlw	5
  3152  00386A  6E10               	movwf	??_WriteMessageToFifo^(0+1280),c
  3153  00386C                     i2u107_45:
  3154  00386C  90D8               	bcf	status,0,c
  3155  00386E  3217               	rrcf	(WriteMessageToFifo@msgId+3)^(0+1280),f,c
  3156  003870  3216               	rrcf	(WriteMessageToFifo@msgId+2)^(0+1280),f,c
  3157  003872  3215               	rrcf	(WriteMessageToFifo@msgId+1)^(0+1280),f,c
  3158  003874  3214               	rrcf	WriteMessageToFifo@msgId^(0+1280),f,c
  3159  003876  2E10               	decfsz	??_WriteMessageToFifo^(0+1280),f,c
  3160  003878  EF36  F01C         	goto	i2u107_45
  3161  00387C                     
  3162                           ;mcc_generated_files/can1.c: 563:         txFifoObj[2] = msgId;
  3163  00387C  EE20 F002          	lfsr	2,2
  3164  003880  500C               	movf	WriteMessageToFifo@txFifoObj^(0+1280),w,c
  3165  003882  26D9               	addwf	fsr2l,f,c
  3166  003884  500D               	movf	(WriteMessageToFifo@txFifoObj+1)^(0+1280),w,c
  3167  003886  22DA               	addwfc	fsr2h,f,c
  3168  003888  0061  F450  F4DF   	movff	WriteMessageToFifo@msgId,indf2
  3169  00388E                     
  3170                           ;mcc_generated_files/can1.c: 564:         msgId >>= (8U);
  3171  00388E  C515  F514         	movff	WriteMessageToFifo@msgId+1,WriteMessageToFifo@msgId
  3172  003892  C516  F515         	movff	WriteMessageToFifo@msgId+2,WriteMessageToFifo@msgId+1
  3173  003896  C517  F516         	movff	WriteMessageToFifo@msgId+3,WriteMessageToFifo@msgId+2
  3174  00389A  6A17               	clrf	(WriteMessageToFifo@msgId+3)^(0+1280),c
  3175  00389C                     
  3176                           ;mcc_generated_files/can1.c: 565:         txFifoObj[3] = (msgId & (0x1FU));
  3177  00389C  EE20 F003          	lfsr	2,3
  3178  0038A0  500C               	movf	WriteMessageToFifo@txFifoObj^(0+1280),w,c
  3179  0038A2  26D9               	addwf	fsr2l,f,c
  3180  0038A4  500D               	movf	(WriteMessageToFifo@txFifoObj+1)^(0+1280),w,c
  3181  0038A6  22DA               	addwfc	fsr2h,f,c
  3182  0038A8  5014               	movf	WriteMessageToFifo@msgId^(0+1280),w,c
  3183  0038AA  0B1F               	andlw	31
  3184  0038AC  6EDF               	movwf	indf2,c
  3185  0038AE                     
  3186                           ;mcc_generated_files/can1.c: 566:         msgId >>= (5U);
  3187  0038AE  0E05               	movlw	5
  3188  0038B0  6E10               	movwf	??_WriteMessageToFifo^(0+1280),c
  3189  0038B2                     i2u108_45:
  3190  0038B2  90D8               	bcf	status,0,c
  3191  0038B4  3217               	rrcf	(WriteMessageToFifo@msgId+3)^(0+1280),f,c
  3192  0038B6  3216               	rrcf	(WriteMessageToFifo@msgId+2)^(0+1280),f,c
  3193  0038B8  3215               	rrcf	(WriteMessageToFifo@msgId+1)^(0+1280),f,c
  3194  0038BA  3214               	rrcf	WriteMessageToFifo@msgId^(0+1280),f,c
  3195  0038BC  2E10               	decfsz	??_WriteMessageToFifo^(0+1280),f,c
  3196  0038BE  EF59  F01C         	goto	i2u108_45
  3197                           
  3198                           ;mcc_generated_files/can1.c: 567:     }
  3199  0038C2  EF7B  F01C         	goto	i2l2057
  3200  0038C6                     i2l2055:
  3201                           
  3202                           ;mcc_generated_files/can1.c: 569:     {;mcc_generated_files/can1.c: 570:         txFifoO
      +                          bj[1] = txFifoObj[2] = txFifoObj[3] = 0;
  3203  0038C6  EE20 F003          	lfsr	2,3
  3204  0038CA  500C               	movf	WriteMessageToFifo@txFifoObj^(0+1280),w,c
  3205  0038CC  26D9               	addwf	fsr2l,f,c
  3206  0038CE  500D               	movf	(WriteMessageToFifo@txFifoObj+1)^(0+1280),w,c
  3207  0038D0  22DA               	addwfc	fsr2h,f,c
  3208  0038D2  0E00               	movlw	0
  3209  0038D4  6EDF               	movwf	indf2,c
  3210  0038D6  EE10 F002          	lfsr	1,2
  3211  0038DA  500C               	movf	WriteMessageToFifo@txFifoObj^(0+1280),w,c
  3212  0038DC  26E1               	addwf	fsr1l,f,c
  3213  0038DE  500D               	movf	(WriteMessageToFifo@txFifoObj+1)^(0+1280),w,c
  3214  0038E0  22E2               	addwfc	fsr1h,f,c
  3215  0038E2  C4DF F4E7          	movff	indf2,indf1
  3216  0038E6  EE20 F001          	lfsr	2,1
  3217  0038EA  500C               	movf	WriteMessageToFifo@txFifoObj^(0+1280),w,c
  3218  0038EC  26D9               	addwf	fsr2l,f,c
  3219  0038EE  500D               	movf	(WriteMessageToFifo@txFifoObj+1)^(0+1280),w,c
  3220  0038F0  22DA               	addwfc	fsr2h,f,c
  3221  0038F2  C4E7 F4DF          	movff	indf1,indf2
  3222  0038F6                     i2l2057:
  3223                           
  3224                           ;mcc_generated_files/can1.c: 573:     txFifoObj[0] = msgId;
  3225  0038F6  0061  F430  F4D9   	movff	WriteMessageToFifo@txFifoObj,fsr2l
  3226  0038FC  0061  F434  F4DA   	movff	WriteMessageToFifo@txFifoObj+1,fsr2h
  3227  003902  0061  F450  F4DF   	movff	WriteMessageToFifo@msgId,indf2
  3228  003908                     
  3229                           ;mcc_generated_files/can1.c: 574:     msgId >>= (8U);
  3230  003908  C515  F514         	movff	WriteMessageToFifo@msgId+1,WriteMessageToFifo@msgId
  3231  00390C  C516  F515         	movff	WriteMessageToFifo@msgId+2,WriteMessageToFifo@msgId+1
  3232  003910  C517  F516         	movff	WriteMessageToFifo@msgId+3,WriteMessageToFifo@msgId+2
  3233  003914  6A17               	clrf	(WriteMessageToFifo@msgId+3)^(0+1280),c
  3234  003916                     
  3235                           ;mcc_generated_files/can1.c: 575:     txFifoObj[1] |= (msgId & (0x07U));
  3236  003916  C514  F510         	movff	WriteMessageToFifo@msgId,??_WriteMessageToFifo
  3237  00391A  0E07               	movlw	7
  3238  00391C  1610               	andwf	??_WriteMessageToFifo^(0+1280),f,c
  3239  00391E  EE20 F001          	lfsr	2,1
  3240  003922  500C               	movf	WriteMessageToFifo@txFifoObj^(0+1280),w,c
  3241  003924  26D9               	addwf	fsr2l,f,c
  3242  003926  500D               	movf	(WriteMessageToFifo@txFifoObj+1)^(0+1280),w,c
  3243  003928  22DA               	addwfc	fsr2h,f,c
  3244  00392A  5010               	movf	??_WriteMessageToFifo^(0+1280),w,c
  3245  00392C  12DF               	iorwf	indf2,f,c
  3246  00392E                     
  3247                           ;mcc_generated_files/can1.c: 577:     status = txCanMsg->field.dlc;
  3248  00392E  EE20 F004          	lfsr	2,4
  3249  003932  500E               	movf	WriteMessageToFifo@txCanMsg^(0+1280),w,c
  3250  003934  26D9               	addwf	fsr2l,f,c
  3251  003936  500F               	movf	(WriteMessageToFifo@txCanMsg+1)^(0+1280),w,c
  3252  003938  22DA               	addwfc	fsr2h,f,c
  3253  00393A  30DF               	rrcf	479,w,c
  3254  00393C  32E8               	rrcf	wreg,f,c
  3255  00393E  0B0F               	andlw	15
  3256  003940  6E13               	movwf	WriteMessageToFifo@status^(0+1280),c
  3257  003942                     
  3258                           ;mcc_generated_files/can1.c: 578:     status |= (txCanMsg->field.idType << (4U));
  3259  003942  EE20 F004          	lfsr	2,4
  3260  003946  500E               	movf	WriteMessageToFifo@txCanMsg^(0+1280),w,c
  3261  003948  26D9               	addwf	fsr2l,f,c
  3262  00394A  500F               	movf	(WriteMessageToFifo@txCanMsg+1)^(0+1280),w,c
  3263  00394C  22DA               	addwfc	fsr2h,f,c
  3264  00394E  B0DF               	btfsc	indf2,0,c
  3265  003950  EFAC  F01C         	goto	i2u109_41
  3266  003954  EFB0  F01C         	goto	i2u109_40
  3267  003958                     i2u109_41:
  3268  003958  6A10               	clrf	??_WriteMessageToFifo^(0+1280),c
  3269  00395A  2A10               	incf	??_WriteMessageToFifo^(0+1280),f,c
  3270  00395C  EFB1  F01C         	goto	i2u109_48
  3271  003960                     i2u109_40:
  3272  003960  6A10               	clrf	??_WriteMessageToFifo^(0+1280),c
  3273  003962                     i2u109_48:
  3274  003962  3810               	swapf	??_WriteMessageToFifo^(0+1280),w,c
  3275  003964  0BF0               	andlw	240
  3276  003966  1213               	iorwf	WriteMessageToFifo@status^(0+1280),f,c
  3277  003968                     
  3278                           ;mcc_generated_files/can1.c: 579:     status |= (txCanMsg->field.frameType << (5U));
  3279  003968  EE20 F004          	lfsr	2,4
  3280  00396C  500E               	movf	WriteMessageToFifo@txCanMsg^(0+1280),w,c
  3281  00396E  26D9               	addwf	fsr2l,f,c
  3282  003970  500F               	movf	(WriteMessageToFifo@txCanMsg+1)^(0+1280),w,c
  3283  003972  22DA               	addwfc	fsr2h,f,c
  3284  003974  B2DF               	btfsc	indf2,1,c
  3285  003976  EFBF  F01C         	goto	i2u110_41
  3286  00397A  EFC3  F01C         	goto	i2u110_40
  3287  00397E                     i2u110_41:
  3288  00397E  0E20               	movlw	32
  3289  003980  6E10               	movwf	??_WriteMessageToFifo^(0+1280),c
  3290  003982  EFC4  F01C         	goto	i2u111_45
  3291  003986                     i2u110_40:
  3292  003986  6A10               	clrf	??_WriteMessageToFifo^(0+1280),c
  3293  003988                     i2u111_45:
  3294  003988  5010               	movf	??_WriteMessageToFifo^(0+1280),w,c
  3295  00398A  1213               	iorwf	WriteMessageToFifo@status^(0+1280),f,c
  3296  00398C                     
  3297                           ;mcc_generated_files/can1.c: 580:     status |= (txCanMsg->field.brs << (6U));
  3298  00398C  EE20 F004          	lfsr	2,4
  3299  003990  500E               	movf	WriteMessageToFifo@txCanMsg^(0+1280),w,c
  3300  003992  26D9               	addwf	fsr2l,f,c
  3301  003994  500F               	movf	(WriteMessageToFifo@txCanMsg+1)^(0+1280),w,c
  3302  003996  22DA               	addwfc	fsr2h,f,c
  3303  003998  BEDF               	btfsc	indf2,7,c
  3304  00399A  EFD1  F01C         	goto	i2u112_41
  3305  00399E  EFD5  F01C         	goto	i2u112_40
  3306  0039A2                     i2u112_41:
  3307  0039A2  0E40               	movlw	64
  3308  0039A4  6E10               	movwf	??_WriteMessageToFifo^(0+1280),c
  3309  0039A6  EFD6  F01C         	goto	i2u113_45
  3310  0039AA                     i2u112_40:
  3311  0039AA  6A10               	clrf	??_WriteMessageToFifo^(0+1280),c
  3312  0039AC                     i2u113_45:
  3313  0039AC  5010               	movf	??_WriteMessageToFifo^(0+1280),w,c
  3314  0039AE  1213               	iorwf	WriteMessageToFifo@status^(0+1280),f,c
  3315  0039B0                     
  3316                           ;mcc_generated_files/can1.c: 581:     status |= (txCanMsg->field.formatType << (7U));
  3317  0039B0  EE20 F004          	lfsr	2,4
  3318  0039B4  500E               	movf	WriteMessageToFifo@txCanMsg^(0+1280),w,c
  3319  0039B6  26D9               	addwf	fsr2l,f,c
  3320  0039B8  500F               	movf	(WriteMessageToFifo@txCanMsg+1)^(0+1280),w,c
  3321  0039BA  22DA               	addwfc	fsr2h,f,c
  3322  0039BC  BCDF               	btfsc	indf2,6,c
  3323  0039BE  EFE3  F01C         	goto	i2u114_41
  3324  0039C2  EFE7  F01C         	goto	i2u114_40
  3325  0039C6                     i2u114_41:
  3326  0039C6  0E80               	movlw	128
  3327  0039C8  6E10               	movwf	??_WriteMessageToFifo^(0+1280),c
  3328  0039CA  EFE8  F01C         	goto	i2u115_45
  3329  0039CE                     i2u114_40:
  3330  0039CE  6A10               	clrf	??_WriteMessageToFifo^(0+1280),c
  3331  0039D0                     i2u115_45:
  3332  0039D0  5010               	movf	??_WriteMessageToFifo^(0+1280),w,c
  3333  0039D2  1213               	iorwf	WriteMessageToFifo@status^(0+1280),f,c
  3334  0039D4                     
  3335                           ;mcc_generated_files/can1.c: 582:     txFifoObj[4] = status;
  3336  0039D4  EE20 F004          	lfsr	2,4
  3337  0039D8  500C               	movf	WriteMessageToFifo@txFifoObj^(0+1280),w,c
  3338  0039DA  26D9               	addwf	fsr2l,f,c
  3339  0039DC  500D               	movf	(WriteMessageToFifo@txFifoObj+1)^(0+1280),w,c
  3340  0039DE  22DA               	addwfc	fsr2h,f,c
  3341  0039E0  0061  F44C  F4DF   	movff	WriteMessageToFifo@status,indf2
  3342  0039E6                     
  3343                           ;mcc_generated_files/can1.c: 584:     if (CAN_FRAME_DATA == txCanMsg->field.frameType)
  3344  0039E6  EE20 F004          	lfsr	2,4
  3345  0039EA  500E               	movf	WriteMessageToFifo@txCanMsg^(0+1280),w,c
  3346  0039EC  26D9               	addwf	fsr2l,f,c
  3347  0039EE  500F               	movf	(WriteMessageToFifo@txCanMsg+1)^(0+1280),w,c
  3348  0039F0  22DA               	addwfc	fsr2h,f,c
  3349  0039F2  B2DF               	btfsc	indf2,1,c
  3350  0039F4  EFFE  F01C         	goto	i2u116_41
  3351  0039F8  EF00  F01D         	goto	i2u116_40
  3352  0039FC                     i2u116_41:
  3353  0039FC  EF2C  F01D         	goto	i2l228
  3354  003A00                     i2u116_40:
  3355  003A00                     
  3356                           ;mcc_generated_files/can1.c: 585:     {;mcc_generated_files/can1.c: 586:         memcpy(
      +                          txFifoObj + payloadOffsetBytes, txCanMsg->data, (DLC_BYTES[(txCanMsg->field.dlc)]));
  3357  003A00  0E08               	movlw	8
  3358  003A02  240C               	addwf	WriteMessageToFifo@txFifoObj^(0+1280),w,c
  3359  003A04  6E01               	movwf	memcpy@d1^(0+1280),c
  3360  003A06  0E00               	movlw	0
  3361  003A08  200D               	addwfc	(WriteMessageToFifo@txFifoObj+1)^(0+1280),w,c
  3362  003A0A  6E02               	movwf	(memcpy@d1+1)^(0+1280),c
  3363  003A0C  EE20 F005          	lfsr	2,5
  3364  003A10  500E               	movf	WriteMessageToFifo@txCanMsg^(0+1280),w,c
  3365  003A12  26D9               	addwf	fsr2l,f,c
  3366  003A14  500F               	movf	(WriteMessageToFifo@txCanMsg+1)^(0+1280),w,c
  3367  003A16  22DA               	addwfc	fsr2h,f,c
  3368  003A18  0061 F378  F503    	movff	postinc2,memcpy@s1
  3369  003A1E  0061 F374  F504    	movff	postdec2,memcpy@s1+1
  3370  003A24  EE20 F004          	lfsr	2,4
  3371  003A28  500E               	movf	WriteMessageToFifo@txCanMsg^(0+1280),w,c
  3372  003A2A  26D9               	addwf	fsr2l,f,c
  3373  003A2C  500F               	movf	(WriteMessageToFifo@txCanMsg+1)^(0+1280),w,c
  3374  003A2E  22DA               	addwfc	fsr2h,f,c
  3375  003A30  30DF               	rrcf	479,w,c
  3376  003A32  32E8               	rrcf	wreg,f,c
  3377  003A34  0B0F               	andlw	15
  3378  003A36  6E10               	movwf	??_WriteMessageToFifo^(0+1280),c
  3379  003A38  6A11               	clrf	(??_WriteMessageToFifo+1)^(0+1280),c
  3380  003A3A  0E01               	movlw	low _DLC_BYTES
  3381  003A3C  2410               	addwf	??_WriteMessageToFifo^(0+1280),w,c
  3382  003A3E  6EF6               	movwf	tblptrl,c
  3383  003A40  0E38               	movlw	high _DLC_BYTES
  3384  003A42  2011               	addwfc	(??_WriteMessageToFifo+1)^(0+1280),w,c
  3385  003A44  6EF7               	movwf	tblptrh,c
  3386  003A46                     	if	1	;There are 3 active tblptr bytes
  3387  003A46  6AF8               	clrf	tblptru,c
  3388  003A48  0E00               	movlw	low (__mediumconst shr (0+16))
  3389  003A4A  22F8               	addwfc	tblptru,f,c
  3390  003A4C                     	endif
  3391  003A4C  0008               	tblrd		*
  3392  003A4E  50F5               	movf	tablat,w,c
  3393  003A50  6E05               	movwf	memcpy@n^(0+1280),c
  3394  003A52  6A06               	clrf	(memcpy@n+1)^(0+1280),c
  3395  003A54  EC76  F022         	call	_memcpy	;wreg free
  3396  003A58                     i2l228:
  3397  003A58  0012               	return		;funcret
  3398  003A5A                     __end_of_WriteMessageToFifo:
  3399                           	callstack 0
  3400                           
  3401 ;; *************** function _ValidateTransmission *****************
  3402 ;; Defined at:
  3403 ;;		line 590 in file "mcc_generated_files/can1.c"
  3404 ;; Parameters:    Size  Location     Type
  3405 ;;  validChannel    1    wreg     unsigned char 
  3406 ;;  txCanMsg        2    1[COMRAM] PTR struct .
  3407 ;;		 -> TU16A_DefaultInterruptHandler@Transmission(7), DefaultFIFO1NotEmptyHandler@Return_Message(7), 
  3408 ;; Auto vars:     Size  Location     Type
  3409 ;;  validChannel    1    9[COMRAM] unsigned char 
  3410 ;;  field           1   11[COMRAM] struct .
  3411 ;;  txMsgStatus     1   10[COMRAM] enum E23057
  3412 ;;  plsize          1    8[COMRAM] unsigned char 
  3413 ;; Return value:  Size  Location     Type
  3414 ;;                  1    wreg      enum E23057
  3415 ;; Registers used:
  3416 ;;		wreg, fsr2l, fsr2h, status,2, status,0, tblptrl, tblptrh, tblptru, prodl, prodh, cstack
  3417 ;; Tracked objects:
  3418 ;;		On entry : 0/0
  3419 ;;		On exit  : 0/0
  3420 ;;		Unchanged: 0/0
  3421 ;; Data sizes:     COMRAM   BANK5   BANK6   BANK7   BANK8   BANK9  BANK10  BANK11  BANK12  BANK13  BANK14  BANK15  BANK1
      +6  BANK17  BANK18  BANK19  BANK20  BANK21  BANK22  BANK23  BANK24  BANK25  BANK26  BANK27  BANK28  BANK29  BANK30  BANK3
      +1  BANK32  BANK33  BANK34  BANK35  BANK36  BANK37  BANK38  BANK39  BANK40  BANK41  BANK42  BANK43  BANK44  BANK45  BANK4
      +6  BANK47  BANK48  BANK49  BANK50  BANK51  BANK52  BANK53  BANK54  BANK55
  3422 ;;      Params:         2       0       0       0       0       0       0       0       0       0       0       0       
      +0       0       0       0       0       0       0       0       0       0       0       0       0       0       0       
      +0       0       0       0       0       0       0       0       0       0       0       0       0       0       0       
      +0       0       0       0       0       0       0       0       0       0
  3423 ;;      Locals:         4       0       0       0       0       0       0       0       0       0       0       0       
      +0       0       0       0       0       0       0       0       0       0       0       0       0       0       0       
      +0       0       0       0       0       0       0       0       0       0       0       0       0       0       0       
      +0       0       0       0       0       0       0       0       0       0
  3424 ;;      Temps:          5       0       0       0       0       0       0       0       0       0       0       0       
      +0       0       0       0       0       0       0       0       0       0       0       0       0       0       0       
      +0       0       0       0       0       0       0       0       0       0       0       0       0       0       0       
      +0       0       0       0       0       0       0       0       0       0
  3425 ;;      Totals:        11       0       0       0       0       0       0       0       0       0       0       0       
      +0       0       0       0       0       0       0       0       0       0       0       0       0       0       0       
      +0       0       0       0       0       0       0       0       0       0       0       0       0       0       0       
      +0       0       0       0       0       0       0       0       0       0
  3426 ;;Total ram usage:       11 bytes
  3427 ;; Hardware stack levels used:    1
  3428 ;; Hardware stack levels required when called:    1
  3429 ;; This function calls:
  3430 ;;		_GetTxFifoStatus
  3431 ;;		i2_CAN1_OperationModeGet
  3432 ;; This function is called by:
  3433 ;;		_CAN1_Transmit
  3434 ;; This function uses a non-reentrant model
  3435 ;;
  3436                           
  3437                           	psect	text26
  3438  003EC6                     __ptext26:
  3439                           	callstack 0
  3440  003EC6                     _ValidateTransmission:
  3441                           	callstack 118
  3442                           
  3443                           ;incstack = 0
  3444                           ;ValidateTransmission@validChannel stored from wreg
  3445  003EC6  6E0A               	movwf	ValidateTransmission@validChannel^(0+1280),c
  3446  003EC8                     
  3447                           ;mcc_generated_files/can1.c: 590: static CAN_TX_MSG_REQUEST_STATUS ValidateTransmission(
      +                          uint8_t validChannel, CAN_MSG_OBJ *txCanMsg);mcc_generated_files/can1.c: 591: {;mcc_gene
      +                          rated_files/can1.c: 592:     CAN_TX_MSG_REQUEST_STATUS txMsgStatus = CAN_TX_MSG_REQUEST_
      +                          SUCCESS;
  3448  003EC8  0E00               	movlw	0
  3449  003ECA  6E0B               	movwf	ValidateTransmission@txMsgStatus^(0+1280),c
  3450  003ECC                     
  3451                           ;mcc_generated_files/can1.c: 593:     CAN_MSG_FIELD field = txCanMsg->field;
  3452  003ECC  EE20 F004          	lfsr	2,4
  3453  003ED0  5002               	movf	ValidateTransmission@txCanMsg^(0+1280),w,c
  3454  003ED2  26D9               	addwf	fsr2l,f,c
  3455  003ED4  5003               	movf	(ValidateTransmission@txCanMsg+1)^(0+1280),w,c
  3456  003ED6  22DA               	addwfc	fsr2h,f,c
  3457  003ED8  50DF               	movf	indf2,w,c
  3458  003EDA  6E0C               	movwf	ValidateTransmission@field^(0+1280),c
  3459  003EDC                     
  3460                           ;mcc_generated_files/can1.c: 594:     uint8_t plsize = (FIFO[validChannel].CONT & 0xE0) 
      +                          >> 0x5;
  3461  003EDC  500A               	movf	ValidateTransmission@validChannel^(0+1280),w,c
  3462  003EDE  0D0C               	mullw	12
  3463  003EE0  0E53               	movlw	83
  3464  003EE2  24F3               	addwf	243,w,c
  3465  003EE4  6ED9               	movwf	fsr2l,c
  3466  003EE6  0E01               	movlw	1
  3467  003EE8  20F4               	addwfc	prodh,w,c
  3468  003EEA  6EDA               	movwf	fsr2h,c
  3469  003EEC  50DF               	movf	indf2,w,c
  3470  003EEE  6E04               	movwf	??_ValidateTransmission^(0+1280),c
  3471  003EF0  0E05               	movlw	5
  3472  003EF2  6E05               	movwf	(??_ValidateTransmission+1)^(0+1280),c
  3473  003EF4                     i2u117_45:
  3474  003EF4  90D8               	bcf	status,0,c
  3475  003EF6  3204               	rrcf	??_ValidateTransmission^(0+1280),f,c
  3476  003EF8  2E05               	decfsz	(??_ValidateTransmission+1)^(0+1280),f,c
  3477  003EFA  EF7A  F01F         	goto	i2u117_45
  3478  003EFE  5004               	movf	??_ValidateTransmission^(0+1280),w,c
  3479  003F00  0B07               	andlw	7
  3480  003F02  6E09               	movwf	ValidateTransmission@plsize^(0+1280),c
  3481  003F04                     
  3482                           ;mcc_generated_files/can1.c: 596:     if (CAN_BRS_MODE == field.brs && (1 == C1CONHbits.
      +                          BRSDIS || CAN_NORMAL_2_0_MODE == CAN1_OperationModeGet()))
  3483  003F04  AE0C               	btfss	ValidateTransmission@field^(0+1280),7,c
  3484  003F06  EF87  F01F         	goto	i2u118_41
  3485  003F0A  EF89  F01F         	goto	i2u118_40
  3486  003F0E                     i2u118_41:
  3487  003F0E  EF9C  F01F         	goto	i2l2093
  3488  003F12                     i2u118_40:
  3489  003F12  0101               	movlb	1	; () banked
  3490  003F14  B901               	btfsc	1,4,b	;volatile
  3491  003F16  EF8F  F01F         	goto	i2u119_41
  3492  003F1A  EF91  F01F         	goto	i2u119_40
  3493  003F1E                     i2u119_41:
  3494  003F1E  EF9B  F01F         	goto	i2l2091
  3495  003F22                     i2u119_40:
  3496  003F22                     
  3497                           ; BSR set to: 1
  3498  003F22  EC34  F024         	call	i2_CAN1_OperationModeGet	;wreg free
  3499  003F26  0A06               	xorlw	6
  3500  003F28  A4D8               	btfss	status,2,c
  3501  003F2A  EF99  F01F         	goto	i2u120_41
  3502  003F2E  EF9B  F01F         	goto	i2u120_40
  3503  003F32                     i2u120_41:
  3504  003F32  EF9C  F01F         	goto	i2l2093
  3505  003F36                     i2u120_40:
  3506  003F36                     i2l2091:
  3507                           
  3508                           ;mcc_generated_files/can1.c: 597:     {;mcc_generated_files/can1.c: 598:         txMsgSt
      +                          atus |= CAN_TX_MSG_REQUEST_BRS_ERROR;
  3509  003F36  820B               	bsf	ValidateTransmission@txMsgStatus^(0+1280),1,c
  3510  003F38                     i2l2093:
  3511                           
  3512                           ;mcc_generated_files/can1.c: 601:     if (field.dlc > DLC_8 && (CAN_2_0_FORMAT == field.
      +                          formatType || CAN_NORMAL_2_0_MODE == CAN1_OperationModeGet()))
  3513  003F38  300C               	rrcf	ValidateTransmission@field^(0+1280),w,c
  3514  003F3A  32E8               	rrcf	wreg,f,c
  3515  003F3C  0B0F               	andlw	15
  3516  003F3E  6E04               	movwf	??_ValidateTransmission^(0+1280),c
  3517  003F40  0E08               	movlw	8
  3518  003F42  6404               	cpfsgt	??_ValidateTransmission^(0+1280),c
  3519  003F44  EFA6  F01F         	goto	i2u121_41
  3520  003F48  EFA8  F01F         	goto	i2u121_40
  3521  003F4C                     i2u121_41:
  3522  003F4C  EFBA  F01F         	goto	i2l2101
  3523  003F50                     i2u121_40:
  3524  003F50  AC0C               	btfss	ValidateTransmission@field^(0+1280),6,c
  3525  003F52  EFAD  F01F         	goto	i2u122_41
  3526  003F56  EFAF  F01F         	goto	i2u122_40
  3527  003F5A                     i2u122_41:
  3528  003F5A  EFB9  F01F         	goto	i2l2099
  3529  003F5E                     i2u122_40:
  3530  003F5E  EC34  F024         	call	i2_CAN1_OperationModeGet	;wreg free
  3531  003F62  0A06               	xorlw	6
  3532  003F64  A4D8               	btfss	status,2,c
  3533  003F66  EFB7  F01F         	goto	i2u123_41
  3534  003F6A  EFB9  F01F         	goto	i2u123_40
  3535  003F6E                     i2u123_41:
  3536  003F6E  EFBA  F01F         	goto	i2l2101
  3537  003F72                     i2u123_40:
  3538  003F72                     i2l2099:
  3539                           
  3540                           ;mcc_generated_files/can1.c: 602:     {;mcc_generated_files/can1.c: 603:         txMsgSt
      +                          atus |= CAN_TX_MSG_REQUEST_DLC_EXCEED_ERROR;
  3541  003F72  800B               	bsf	ValidateTransmission@txMsgStatus^(0+1280),0,c
  3542  003F74                     i2l2101:
  3543                           
  3544                           ;mcc_generated_files/can1.c: 606:     if ((DLC_BYTES[(field.dlc)]) > ((DLC_BYTES[(8u + (
      +                          plsize))])))
  3545  003F74  5009               	movf	ValidateTransmission@plsize^(0+1280),w,c
  3546  003F76  6E04               	movwf	??_ValidateTransmission^(0+1280),c
  3547  003F78  6A05               	clrf	(??_ValidateTransmission+1)^(0+1280),c
  3548  003F7A  0E08               	movlw	8
  3549  003F7C  2604               	addwf	??_ValidateTransmission^(0+1280),f,c
  3550  003F7E  0E00               	movlw	0
  3551  003F80  2205               	addwfc	(??_ValidateTransmission+1)^(0+1280),f,c
  3552  003F82  0E01               	movlw	low _DLC_BYTES
  3553  003F84  2404               	addwf	??_ValidateTransmission^(0+1280),w,c
  3554  003F86  6EF6               	movwf	tblptrl,c
  3555  003F88  0E38               	movlw	high _DLC_BYTES
  3556  003F8A  2005               	addwfc	(??_ValidateTransmission+1)^(0+1280),w,c
  3557  003F8C  6EF7               	movwf	tblptrh,c
  3558  003F8E                     	if	1	;There are 3 active tblptr bytes
  3559  003F8E  6AF8               	clrf	tblptru,c
  3560  003F90  0E00               	movlw	low (__mediumconst shr (0+16))
  3561  003F92  22F8               	addwfc	tblptru,f,c
  3562  003F94                     	endif
  3563  003F94  0008               	tblrd		*
  3564  003F96  0061 F3D4  F506    	movff	tablat,??_ValidateTransmission+2
  3565  003F9C  300C               	rrcf	ValidateTransmission@field^(0+1280),w,c
  3566  003F9E  32E8               	rrcf	wreg,f,c
  3567  003FA0  0B0F               	andlw	15
  3568  003FA2  6E07               	movwf	(??_ValidateTransmission+3)^(0+1280),c
  3569  003FA4  6A08               	clrf	(??_ValidateTransmission+4)^(0+1280),c
  3570  003FA6  0E01               	movlw	low _DLC_BYTES
  3571  003FA8  2407               	addwf	(??_ValidateTransmission+3)^(0+1280),w,c
  3572  003FAA  6EF6               	movwf	tblptrl,c
  3573  003FAC  0E38               	movlw	high _DLC_BYTES
  3574  003FAE  2008               	addwfc	(??_ValidateTransmission+4)^(0+1280),w,c
  3575  003FB0  6EF7               	movwf	tblptrh,c
  3576  003FB2                     	if	1	;There are 3 active tblptr bytes
  3577  003FB2  6AF8               	clrf	tblptru,c
  3578  003FB4  0E00               	movlw	low (__mediumconst shr (0+16))
  3579  003FB6  22F8               	addwfc	tblptru,f,c
  3580  003FB8                     	endif
  3581  003FB8  0008               	tblrd		*
  3582  003FBA  50F5               	movf	tablat,w,c
  3583  003FBC  5C06               	subwf	(??_ValidateTransmission+2)^(0+1280),w,c
  3584  003FBE  B0D8               	btfsc	status,0,c
  3585  003FC0  EFE4  F01F         	goto	i2u124_41
  3586  003FC4  EFE6  F01F         	goto	i2u124_40
  3587  003FC8                     i2u124_41:
  3588  003FC8  EFE7  F01F         	goto	i2l2105
  3589  003FCC                     i2u124_40:
  3590  003FCC                     
  3591                           ;mcc_generated_files/can1.c: 607:     {;mcc_generated_files/can1.c: 608:         txMsgSt
      +                          atus |= CAN_TX_MSG_REQUEST_DLC_EXCEED_ERROR;
  3592  003FCC  800B               	bsf	ValidateTransmission@txMsgStatus^(0+1280),0,c
  3593  003FCE                     i2l2105:
  3594                           
  3595                           ;mcc_generated_files/can1.c: 611:     if (CAN_TX_FIFO_FULL == GetTxFifoStatus(validChann
      +                          el))
  3596  003FCE  500A               	movf	ValidateTransmission@validChannel^(0+1280),w,c
  3597  003FD0  ECF8  F023         	call	_GetTxFifoStatus
  3598  003FD4  0900               	iorlw	0
  3599  003FD6  A4D8               	btfss	status,2,c
  3600  003FD8  EFF0  F01F         	goto	i2u125_41
  3601  003FDC  EFF2  F01F         	goto	i2u125_40
  3602  003FE0                     i2u125_41:
  3603  003FE0  EFF4  F01F         	goto	i2l2109
  3604  003FE4                     i2u125_40:
  3605  003FE4                     
  3606                           ;mcc_generated_files/can1.c: 612:     {;mcc_generated_files/can1.c: 613:         txMsgSt
      +                          atus |= CAN_TX_MSG_REQUEST_FIFO_FULL;
  3607  003FE4  0E03               	movlw	3
  3608  003FE6  120B               	iorwf	ValidateTransmission@txMsgStatus^(0+1280),f,c
  3609  003FE8                     i2l2109:
  3610                           
  3611                           ;mcc_generated_files/can1.c: 616:     return txMsgStatus;
  3612  003FE8  500B               	movf	ValidateTransmission@txMsgStatus^(0+1280),w,c
  3613  003FEA  0012               	return		;funcret
  3614  003FEC                     __end_of_ValidateTransmission:
  3615                           	callstack 0
  3616                           
  3617 ;; *************** function i2_CAN1_OperationModeGet *****************
  3618 ;; Defined at:
  3619 ;;		line 380 in file "mcc_generated_files/can1.c"
  3620 ;; Parameters:    Size  Location     Type
  3621 ;;		None
  3622 ;; Auto vars:     Size  Location     Type
  3623 ;;		None
  3624 ;; Return value:  Size  Location     Type
  3625 ;;                  1    wreg      enum E23063
  3626 ;; Registers used:
  3627 ;;		wreg, status,2, status,0
  3628 ;; Tracked objects:
  3629 ;;		On entry : 0/0
  3630 ;;		On exit  : 0/0
  3631 ;;		Unchanged: 0/0
  3632 ;; Data sizes:     COMRAM   BANK5   BANK6   BANK7   BANK8   BANK9  BANK10  BANK11  BANK12  BANK13  BANK14  BANK15  BANK1
      +6  BANK17  BANK18  BANK19  BANK20  BANK21  BANK22  BANK23  BANK24  BANK25  BANK26  BANK27  BANK28  BANK29  BANK30  BANK3
      +1  BANK32  BANK33  BANK34  BANK35  BANK36  BANK37  BANK38  BANK39  BANK40  BANK41  BANK42  BANK43  BANK44  BANK45  BANK4
      +6  BANK47  BANK48  BANK49  BANK50  BANK51  BANK52  BANK53  BANK54  BANK55
  3633 ;;      Params:         0       0       0       0       0       0       0       0       0       0       0       0       
      +0       0       0       0       0       0       0       0       0       0       0       0       0       0       0       
      +0       0       0       0       0       0       0       0       0       0       0       0       0       0       0       
      +0       0       0       0       0       0       0       0       0       0
  3634 ;;      Locals:         0       0       0       0       0       0       0       0       0       0       0       0       
      +0       0       0       0       0       0       0       0       0       0       0       0       0       0       0       
      +0       0       0       0       0       0       0       0       0       0       0       0       0       0       0       
      +0       0       0       0       0       0       0       0       0       0
  3635 ;;      Temps:          0       0       0       0       0       0       0       0       0       0       0       0       
      +0       0       0       0       0       0       0       0       0       0       0       0       0       0       0       
      +0       0       0       0       0       0       0       0       0       0       0       0       0       0       0       
      +0       0       0       0       0       0       0       0       0       0
  3636 ;;      Totals:         0       0       0       0       0       0       0       0       0       0       0       0       
      +0       0       0       0       0       0       0       0       0       0       0       0       0       0       0       
      +0       0       0       0       0       0       0       0       0       0       0       0       0       0       0       
      +0       0       0       0       0       0       0       0       0       0
  3637 ;;Total ram usage:        0 bytes
  3638 ;; Hardware stack levels used:    1
  3639 ;; This function calls:
  3640 ;;		Nothing
  3641 ;; This function is called by:
  3642 ;;		_ValidateTransmission
  3643 ;; This function uses a non-reentrant model
  3644 ;;
  3645                           
  3646                           	psect	text27
  3647  004868                     __ptext27:
  3648                           	callstack 0
  3649  004868                     i2_CAN1_OperationModeGet:
  3650                           	callstack 118
  3651  004868                     
  3652                           ;mcc_generated_files/can1.c: 382:     return C1CONUbits.OPMOD;
  3653  004868  0101               	movlb	1	; () banked
  3654  00486A  3902               	swapf	2,w,b	;volatile
  3655  00486C  32E8               	rrcf	wreg,f,c
  3656  00486E  0B07               	andlw	7
  3657  004870                     
  3658                           ; BSR set to: 1
  3659  004870  0012               	return		;funcret
  3660  004872                     __end_ofi2_CAN1_OperationModeGet:
  3661                           	callstack 0
  3662                           
  3663 ;; *************** function _GetTxFifoStatus *****************
  3664 ;; Defined at:
  3665 ;;		line 544 in file "mcc_generated_files/can1.c"
  3666 ;; Parameters:    Size  Location     Type
  3667 ;;  validChannel    1    wreg     unsigned char 
  3668 ;; Auto vars:     Size  Location     Type
  3669 ;;  validChannel    1    0[COMRAM] unsigned char 
  3670 ;; Return value:  Size  Location     Type
  3671 ;;                  1    wreg      enum E23078
  3672 ;; Registers used:
  3673 ;;		wreg, fsr2l, fsr2h, status,2, status,0, prodl, prodh
  3674 ;; Tracked objects:
  3675 ;;		On entry : 0/0
  3676 ;;		On exit  : 0/0
  3677 ;;		Unchanged: 0/0
  3678 ;; Data sizes:     COMRAM   BANK5   BANK6   BANK7   BANK8   BANK9  BANK10  BANK11  BANK12  BANK13  BANK14  BANK15  BANK1
      +6  BANK17  BANK18  BANK19  BANK20  BANK21  BANK22  BANK23  BANK24  BANK25  BANK26  BANK27  BANK28  BANK29  BANK30  BANK3
      +1  BANK32  BANK33  BANK34  BANK35  BANK36  BANK37  BANK38  BANK39  BANK40  BANK41  BANK42  BANK43  BANK44  BANK45  BANK4
      +6  BANK47  BANK48  BANK49  BANK50  BANK51  BANK52  BANK53  BANK54  BANK55
  3679 ;;      Params:         0       0       0       0       0       0       0       0       0       0       0       0       
      +0       0       0       0       0       0       0       0       0       0       0       0       0       0       0       
      +0       0       0       0       0       0       0       0       0       0       0       0       0       0       0       
      +0       0       0       0       0       0       0       0       0       0
  3680 ;;      Locals:         1       0       0       0       0       0       0       0       0       0       0       0       
      +0       0       0       0       0       0       0       0       0       0       0       0       0       0       0       
      +0       0       0       0       0       0       0       0       0       0       0       0       0       0       0       
      +0       0       0       0       0       0       0       0       0       0
  3681 ;;      Temps:          0       0       0       0       0       0       0       0       0       0       0       0       
      +0       0       0       0       0       0       0       0       0       0       0       0       0       0       0       
      +0       0       0       0       0       0       0       0       0       0       0       0       0       0       0       
      +0       0       0       0       0       0       0       0       0       0
  3682 ;;      Totals:         1       0       0       0       0       0       0       0       0       0       0       0       
      +0       0       0       0       0       0       0       0       0       0       0       0       0       0       0       
      +0       0       0       0       0       0       0       0       0       0       0       0       0       0       0       
      +0       0       0       0       0       0       0       0       0       0
  3683 ;;Total ram usage:        1 bytes
  3684 ;; Hardware stack levels used:    1
  3685 ;; This function calls:
  3686 ;;		Nothing
  3687 ;; This function is called by:
  3688 ;;		_ValidateTransmission
  3689 ;;		_CAN1_TransmitFIFOStatusGet
  3690 ;; This function uses a non-reentrant model
  3691 ;;
  3692                           
  3693                           	psect	text28
  3694  0047F0                     __ptext28:
  3695                           	callstack 0
  3696  0047F0                     _GetTxFifoStatus:
  3697                           	callstack 119
  3698                           
  3699                           ; BSR set to: 1
  3700                           ;incstack = 0
  3701                           ;GetTxFifoStatus@validChannel stored from wreg
  3702  0047F0  6E01               	movwf	GetTxFifoStatus@validChannel^(0+1280),c
  3703  0047F2                     
  3704                           ;mcc_generated_files/can1.c: 544: static CAN_TX_FIFO_STATUS GetTxFifoStatus(uint8_t vali
      +                          dChannel);mcc_generated_files/can1.c: 545: {;mcc_generated_files/can1.c: 546:     return
      +                           (FIFO[validChannel].STAL & 0x1);
  3705  0047F2  5001               	movf	GetTxFifoStatus@validChannel^(0+1280),w,c
  3706  0047F4  0D0C               	mullw	12
  3707  0047F6  0E54               	movlw	84
  3708  0047F8  24F3               	addwf	243,w,c
  3709  0047FA  6ED9               	movwf	fsr2l,c
  3710  0047FC  0E01               	movlw	1
  3711  0047FE  20F4               	addwfc	prodh,w,c
  3712  004800  6EDA               	movwf	fsr2h,c
  3713  004802  50DF               	movf	indf2,w,c
  3714  004804  0B01               	andlw	1
  3715  004806  0012               	return		;funcret
  3716  004808                     __end_of_GetTxFifoStatus:
  3717                           	callstack 0
  3718                           
  3719 ;; *************** function _CAN1_ReceivedMessageCountGet *****************
  3720 ;; Defined at:
  3721 ;;		line 496 in file "mcc_generated_files/can1.c"
  3722 ;; Parameters:    Size  Location     Type
  3723 ;;		None
  3724 ;; Auto vars:     Size  Location     Type
  3725 ;;  fifoHead        1    8[COMRAM] unsigned char 
  3726 ;;  fifoTail        1    7[COMRAM] unsigned char 
  3727 ;;  fifoDepth       1    6[COMRAM] unsigned char 
  3728 ;;  numOfMsg        1    3[COMRAM] unsigned char 
  3729 ;;  channel         1    5[COMRAM] enum E23103
  3730 ;;  rxMsgStatus     1    4[COMRAM] enum E23148
  3731 ;;  index           1    9[COMRAM] unsigned char 
  3732 ;;  totalMsgObj     1    2[COMRAM] unsigned char 
  3733 ;; Return value:  Size  Location     Type
  3734 ;;                  1    wreg      unsigned char 
  3735 ;; Registers used:
  3736 ;;		wreg, fsr2l, fsr2h, status,2, status,0, prodl, prodh, cstack
  3737 ;; Tracked objects:
  3738 ;;		On entry : 0/0
  3739 ;;		On exit  : 0/0
  3740 ;;		Unchanged: 0/0
  3741 ;; Data sizes:     COMRAM   BANK5   BANK6   BANK7   BANK8   BANK9  BANK10  BANK11  BANK12  BANK13  BANK14  BANK15  BANK1
      +6  BANK17  BANK18  BANK19  BANK20  BANK21  BANK22  BANK23  BANK24  BANK25  BANK26  BANK27  BANK28  BANK29  BANK30  BANK3
      +1  BANK32  BANK33  BANK34  BANK35  BANK36  BANK37  BANK38  BANK39  BANK40  BANK41  BANK42  BANK43  BANK44  BANK45  BANK4
      +6  BANK47  BANK48  BANK49  BANK50  BANK51  BANK52  BANK53  BANK54  BANK55
  3742 ;;      Params:         0       0       0       0       0       0       0       0       0       0       0       0       
      +0       0       0       0       0       0       0       0       0       0       0       0       0       0       0       
      +0       0       0       0       0       0       0       0       0       0       0       0       0       0       0       
      +0       0       0       0       0       0       0       0       0       0
  3743 ;;      Locals:         8       0       0       0       0       0       0       0       0       0       0       0       
      +0       0       0       0       0       0       0       0       0       0       0       0       0       0       0       
      +0       0       0       0       0       0       0       0       0       0       0       0       0       0       0       
      +0       0       0       0       0       0       0       0       0       0
  3744 ;;      Temps:          0       0       0       0       0       0       0       0       0       0       0       0       
      +0       0       0       0       0       0       0       0       0       0       0       0       0       0       0       
      +0       0       0       0       0       0       0       0       0       0       0       0       0       0       0       
      +0       0       0       0       0       0       0       0       0       0
  3745 ;;      Totals:         8       0       0       0       0       0       0       0       0       0       0       0       
      +0       0       0       0       0       0       0       0       0       0       0       0       0       0       0       
      +0       0       0       0       0       0       0       0       0       0       0       0       0       0       0       
      +0       0       0       0       0       0       0       0       0       0
  3746 ;;Total ram usage:        8 bytes
  3747 ;; Hardware stack levels used:    1
  3748 ;; Hardware stack levels required when called:    1
  3749 ;; This function calls:
  3750 ;;		_GetRxFifoDepth
  3751 ;;		_GetRxFifoStatus
  3752 ;; This function is called by:
  3753 ;;		_DefaultFIFO1NotEmptyHandler
  3754 ;; This function uses a non-reentrant model
  3755 ;;
  3756                           
  3757                           	psect	text29
  3758  0040D8                     __ptext29:
  3759                           	callstack 0
  3760  0040D8                     _CAN1_ReceivedMessageCountGet:
  3761                           	callstack 119
  3762  0040D8                     
  3763                           ;mcc_generated_files/can1.c: 498:     uint8_t index, totalMsgObj = 0;
  3764  0040D8  0E00               	movlw	0
  3765  0040DA  6E03               	movwf	CAN1_ReceivedMessageCountGet@totalMsgObj^(0+1280),c
  3766                           
  3767                           ;mcc_generated_files/can1.c: 500:     for (index = 0; index < (1U); index++)
  3768  0040DC  0E00               	movlw	0
  3769  0040DE  6E0A               	movwf	CAN1_ReceivedMessageCountGet@index^(0+1280),c
  3770  0040E0                     i2l2117:
  3771                           
  3772                           ;mcc_generated_files/can1.c: 501:     {;mcc_generated_files/can1.c: 502:         CAN1_RX
      +                          _FIFO_CHANNELS channel = rxFifos[index].channel;
  3773  0040E0  500A               	movf	CAN1_ReceivedMessageCountGet@index^(0+1280),w,c
  3774  0040E2  0D02               	mullw	2
  3775  0040E4  0E63               	movlw	low _rxFifos
  3776  0040E6  24F3               	addwf	243,w,c
  3777  0040E8  6ED9               	movwf	fsr2l,c
  3778  0040EA  0E05               	movlw	high _rxFifos
  3779  0040EC  20F4               	addwfc	prodh,w,c
  3780  0040EE  6EDA               	movwf	fsr2h,c
  3781  0040F0  50DF               	movf	indf2,w,c
  3782  0040F2  6E06               	movwf	CAN1_ReceivedMessageCountGet@channel^(0+1280),c
  3783  0040F4                     
  3784                           ;mcc_generated_files/can1.c: 503:         CAN_RX_FIFO_STATUS rxMsgStatus = GetRxFifoStat
      +                          us(channel);
  3785  0040F4  5006               	movf	CAN1_ReceivedMessageCountGet@channel^(0+1280),w,c
  3786  0040F6  EC04  F024         	call	_GetRxFifoStatus
  3787  0040FA  6E05               	movwf	CAN1_ReceivedMessageCountGet@rxMsgStatus^(0+1280),c
  3788  0040FC                     
  3789                           ;mcc_generated_files/can1.c: 505:         if (CAN_RX_MSG_AVAILABLE == (rxMsgStatus & CAN
      +                          _RX_MSG_AVAILABLE))
  3790  0040FC  A005               	btfss	CAN1_ReceivedMessageCountGet@rxMsgStatus^(0+1280),0,c
  3791  0040FE  EF83  F020         	goto	i2u126_41
  3792  004102  EF85  F020         	goto	i2u126_40
  3793  004106                     i2u126_41:
  3794  004106  EFC6  F020         	goto	i2l2141
  3795  00410A                     i2u126_40:
  3796  00410A                     
  3797                           ;mcc_generated_files/can1.c: 506:         {;mcc_generated_files/can1.c: 507:            
      +                           uint8_t numOfMsg, fifoDepth = GetRxFifoDepth(channel);
  3798  00410A  5006               	movf	CAN1_ReceivedMessageCountGet@channel^(0+1280),w,c
  3799  00410C  ECDC  F023         	call	_GetRxFifoDepth
  3800  004110  6E07               	movwf	CAN1_ReceivedMessageCountGet@fifoDepth^(0+1280),c
  3801  004112                     
  3802                           ;mcc_generated_files/can1.c: 509:             if (CAN_RX_MSG_OVERFLOW == (rxMsgStatus & 
      +                          CAN_RX_MSG_OVERFLOW))
  3803  004112  A605               	btfss	CAN1_ReceivedMessageCountGet@rxMsgStatus^(0+1280),3,c
  3804  004114  EF8E  F020         	goto	i2u127_41
  3805  004118  EF90  F020         	goto	i2u127_40
  3806  00411C                     i2u127_41:
  3807  00411C  EF94  F020         	goto	i2l2129
  3808  004120                     i2u127_40:
  3809  004120                     i2l2127:
  3810                           
  3811                           ;mcc_generated_files/can1.c: 510:             {;mcc_generated_files/can1.c: 511:        
      +                                   numOfMsg = fifoDepth;
  3812  004120  C507  F504         	movff	CAN1_ReceivedMessageCountGet@fifoDepth,CAN1_ReceivedMessageCountGet@numOfMsg
  3813                           
  3814                           ;mcc_generated_files/can1.c: 512:             }
  3815  004124  EFC4  F020         	goto	i2l2139
  3816  004128                     i2l2129:
  3817                           
  3818                           ;mcc_generated_files/can1.c: 514:             {;mcc_generated_files/can1.c: 515:        
      +                                   uint8_t fifoTail = FIFO[channel].STAH & 0x1F;
  3819  004128  5006               	movf	CAN1_ReceivedMessageCountGet@channel^(0+1280),w,c
  3820  00412A  0D0C               	mullw	12
  3821  00412C  0E55               	movlw	85
  3822  00412E  24F3               	addwf	243,w,c
  3823  004130  6ED9               	movwf	fsr2l,c
  3824  004132  0E01               	movlw	1
  3825  004134  20F4               	addwfc	prodh,w,c
  3826  004136  6EDA               	movwf	fsr2h,c
  3827  004138  50DF               	movf	indf2,w,c
  3828  00413A  0B1F               	andlw	31
  3829  00413C  6E08               	movwf	CAN1_ReceivedMessageCountGet@fifoTail^(0+1280),c
  3830                           
  3831                           ;mcc_generated_files/can1.c: 516:                 uint8_t fifoHead = rxFifos[index].fifo
      +                          Head;
  3832  00413E  500A               	movf	CAN1_ReceivedMessageCountGet@index^(0+1280),w,c
  3833  004140  0D02               	mullw	2
  3834  004142  0E64               	movlw	low (_rxFifos+1)
  3835  004144  24F3               	addwf	243,w,c
  3836  004146  6ED9               	movwf	fsr2l,c
  3837  004148  0E05               	movlw	high (_rxFifos+1)
  3838  00414A  20F4               	addwfc	prodh,w,c
  3839  00414C  6EDA               	movwf	fsr2h,c
  3840  00414E  50DF               	movf	indf2,w,c
  3841  004150  6E09               	movwf	CAN1_ReceivedMessageCountGet@fifoHead^(0+1280),c
  3842  004152                     
  3843                           ;mcc_generated_files/can1.c: 518:                 if (fifoTail < fifoHead)
  3844  004152  5009               	movf	CAN1_ReceivedMessageCountGet@fifoHead^(0+1280),w,c
  3845  004154  5C08               	subwf	CAN1_ReceivedMessageCountGet@fifoTail^(0+1280),w,c
  3846  004156  B0D8               	btfsc	status,0,c
  3847  004158  EFB0  F020         	goto	i2u128_41
  3848  00415C  EFB2  F020         	goto	i2u128_40
  3849  004160                     i2u128_41:
  3850  004160  EFB8  F020         	goto	i2l2135
  3851  004164                     i2u128_40:
  3852  004164                     
  3853                           ;mcc_generated_files/can1.c: 519:                 {;mcc_generated_files/can1.c: 520:    
      +                                           numOfMsg = ((fifoTail + fifoDepth) - fifoHead);
  3854  004164  5009               	movf	CAN1_ReceivedMessageCountGet@fifoHead^(0+1280),w,c
  3855  004166  5C08               	subwf	CAN1_ReceivedMessageCountGet@fifoTail^(0+1280),w,c
  3856  004168  2407               	addwf	CAN1_ReceivedMessageCountGet@fifoDepth^(0+1280),w,c
  3857  00416A  6E04               	movwf	CAN1_ReceivedMessageCountGet@numOfMsg^(0+1280),c
  3858                           
  3859                           ;mcc_generated_files/can1.c: 521:                 }
  3860  00416C  EFC4  F020         	goto	i2l2139
  3861  004170                     i2l2135:
  3862  004170  5008               	movf	CAN1_ReceivedMessageCountGet@fifoTail^(0+1280),w,c
  3863  004172  5C09               	subwf	CAN1_ReceivedMessageCountGet@fifoHead^(0+1280),w,c
  3864  004174  B0D8               	btfsc	status,0,c
  3865  004176  EFBF  F020         	goto	i2u129_41
  3866  00417A  EFC1  F020         	goto	i2u129_40
  3867  00417E                     i2u129_41:
  3868  00417E  EF90  F020         	goto	i2l2127
  3869  004182                     i2u129_40:
  3870  004182                     
  3871                           ;mcc_generated_files/can1.c: 523:                 {;mcc_generated_files/can1.c: 524:    
      +                                           numOfMsg = fifoTail - fifoHead;
  3872  004182  5009               	movf	CAN1_ReceivedMessageCountGet@fifoHead^(0+1280),w,c
  3873  004184  5C08               	subwf	CAN1_ReceivedMessageCountGet@fifoTail^(0+1280),w,c
  3874  004186  6E04               	movwf	CAN1_ReceivedMessageCountGet@numOfMsg^(0+1280),c
  3875  004188                     i2l2139:
  3876                           
  3877                           ;mcc_generated_files/can1.c: 532:             totalMsgObj += numOfMsg;
  3878  004188  5004               	movf	CAN1_ReceivedMessageCountGet@numOfMsg^(0+1280),w,c
  3879  00418A  2603               	addwf	CAN1_ReceivedMessageCountGet@totalMsgObj^(0+1280),f,c
  3880  00418C                     i2l2141:
  3881                           
  3882                           ;mcc_generated_files/can1.c: 534:     }
  3883  00418C  2A0A               	incf	CAN1_ReceivedMessageCountGet@index^(0+1280),f,c
  3884  00418E  500A               	movf	CAN1_ReceivedMessageCountGet@index^(0+1280),w,c
  3885  004190  B4D8               	btfsc	status,2,c
  3886  004192  EFCD  F020         	goto	i2u130_41
  3887  004196  EFCF  F020         	goto	i2u130_40
  3888  00419A                     i2u130_41:
  3889  00419A  EF70  F020         	goto	i2l2117
  3890  00419E                     i2u130_40:
  3891  00419E                     
  3892                           ;mcc_generated_files/can1.c: 536:     return totalMsgObj;
  3893  00419E  5003               	movf	CAN1_ReceivedMessageCountGet@totalMsgObj^(0+1280),w,c
  3894  0041A0  0012               	return		;funcret
  3895  0041A2                     __end_of_CAN1_ReceivedMessageCountGet:
  3896                           	callstack 0
  3897                           
  3898 ;; *************** function _CAN1_ReceiveFrom *****************
  3899 ;; Defined at:
  3900 ;;		line 479 in file "mcc_generated_files/can1.c"
  3901 ;; Parameters:    Size  Location     Type
  3902 ;;  channel         1    wreg     const enum E23103
  3903 ;;  rxCanMsg        2   33[COMRAM] PTR struct .
  3904 ;;		 -> DefaultFIFO1NotEmptyHandler@Currently_Processing(7), 
  3905 ;; Auto vars:     Size  Location     Type
  3906 ;;  channel         1   37[COMRAM] const enum E23103
  3907 ;;  index           1   38[COMRAM] unsigned char 
  3908 ;;  status          1   36[COMRAM] _Bool 
  3909 ;; Return value:  Size  Location     Type
  3910 ;;                  1    wreg      _Bool 
  3911 ;; Registers used:
  3912 ;;		wreg, fsr2l, fsr2h, status,2, status,0, tblptrl, tblptrh, tblptru, prodl, prodh, cstack
  3913 ;; Tracked objects:
  3914 ;;		On entry : 0/0
  3915 ;;		On exit  : 0/0
  3916 ;;		Unchanged: 0/0
  3917 ;; Data sizes:     COMRAM   BANK5   BANK6   BANK7   BANK8   BANK9  BANK10  BANK11  BANK12  BANK13  BANK14  BANK15  BANK1
      +6  BANK17  BANK18  BANK19  BANK20  BANK21  BANK22  BANK23  BANK24  BANK25  BANK26  BANK27  BANK28  BANK29  BANK30  BANK3
      +1  BANK32  BANK33  BANK34  BANK35  BANK36  BANK37  BANK38  BANK39  BANK40  BANK41  BANK42  BANK43  BANK44  BANK45  BANK4
      +6  BANK47  BANK48  BANK49  BANK50  BANK51  BANK52  BANK53  BANK54  BANK55
  3918 ;;      Params:         2       0       0       0       0       0       0       0       0       0       0       0       
      +0       0       0       0       0       0       0       0       0       0       0       0       0       0       0       
      +0       0       0       0       0       0       0       0       0       0       0       0       0       0       0       
      +0       0       0       0       0       0       0       0       0       0
  3919 ;;      Locals:         3       0       0       0       0       0       0       0       0       0       0       0       
      +0       0       0       0       0       0       0       0       0       0       0       0       0       0       0       
      +0       0       0       0       0       0       0       0       0       0       0       0       0       0       0       
      +0       0       0       0       0       0       0       0       0       0
  3920 ;;      Temps:          1       0       0       0       0       0       0       0       0       0       0       0       
      +0       0       0       0       0       0       0       0       0       0       0       0       0       0       0       
      +0       0       0       0       0       0       0       0       0       0       0       0       0       0       0       
      +0       0       0       0       0       0       0       0       0       0
  3921 ;;      Totals:         6       0       0       0       0       0       0       0       0       0       0       0       
      +0       0       0       0       0       0       0       0       0       0       0       0       0       0       0       
      +0       0       0       0       0       0       0       0       0       0       0       0       0       0       0       
      +0       0       0       0       0       0       0       0       0       0
  3922 ;;Total ram usage:        6 bytes
  3923 ;; Hardware stack levels used:    1
  3924 ;; Hardware stack levels required when called:    3
  3925 ;; This function calls:
  3926 ;;		_Receive
  3927 ;; This function is called by:
  3928 ;;		_DefaultFIFO1NotEmptyHandler
  3929 ;; This function uses a non-reentrant model
  3930 ;;
  3931                           
  3932                           	psect	text30
  3933  004492                     __ptext30:
  3934                           	callstack 0
  3935  004492                     _CAN1_ReceiveFrom:
  3936                           	callstack 117
  3937                           
  3938                           ;incstack = 0
  3939                           ;CAN1_ReceiveFrom@channel stored from wreg
  3940  004492  6E26               	movwf	CAN1_ReceiveFrom@channel^(0+1280),c
  3941  004494                     
  3942                           ;mcc_generated_files/can1.c: 479: _Bool CAN1_ReceiveFrom(const CAN1_RX_FIFO_CHANNELS cha
      +                          nnel, CAN_MSG_OBJ *rxCanMsg);mcc_generated_files/can1.c: 480: {;mcc_generated_files/can1
      +                          .c: 481:     uint8_t index;;mcc_generated_files/can1.c: 482:     _Bool status = 0;
  3943  004494  0E00               	movlw	0
  3944  004496  6E25               	movwf	CAN1_ReceiveFrom@status^(0+1280),c
  3945                           
  3946                           ;mcc_generated_files/can1.c: 484:     for (index = 0; index < (1U); index++)
  3947  004498  0E00               	movlw	0
  3948  00449A  6E27               	movwf	CAN1_ReceiveFrom@index^(0+1280),c
  3949  00449C                     i2l2155:
  3950                           
  3951                           ;mcc_generated_files/can1.c: 485:     {;mcc_generated_files/can1.c: 486:         if (cha
      +                          nnel == rxFifos[index].channel)
  3952  00449C  5027               	movf	CAN1_ReceiveFrom@index^(0+1280),w,c
  3953  00449E  0D02               	mullw	2
  3954  0044A0  0E63               	movlw	low _rxFifos
  3955  0044A2  24F3               	addwf	243,w,c
  3956  0044A4  6ED9               	movwf	fsr2l,c
  3957  0044A6  0E05               	movlw	high _rxFifos
  3958  0044A8  20F4               	addwfc	prodh,w,c
  3959  0044AA  6EDA               	movwf	fsr2h,c
  3960  0044AC  5026               	movf	CAN1_ReceiveFrom@channel^(0+1280),w,c
  3961  0044AE  18DE               	xorwf	postinc2,w,c
  3962  0044B0  A4D8               	btfss	status,2,c
  3963  0044B2  EF5D  F022         	goto	i2u131_41
  3964  0044B6  EF5F  F022         	goto	i2u131_40
  3965  0044BA                     i2u131_41:
  3966  0044BA  EF6B  F022         	goto	i2l2159
  3967  0044BE                     i2u131_40:
  3968  0044BE                     
  3969                           ;mcc_generated_files/can1.c: 487:         {;mcc_generated_files/can1.c: 488:            
      +                           status = Receive(index, channel, rxCanMsg);
  3970  0044BE  C526  F518         	movff	CAN1_ReceiveFrom@channel,Receive@channel
  3971  0044C2  C522  F519         	movff	CAN1_ReceiveFrom@rxCanMsg,Receive@rxCanMsg
  3972  0044C6  C523  F51A         	movff	CAN1_ReceiveFrom@rxCanMsg+1,Receive@rxCanMsg+1
  3973  0044CA  5027               	movf	CAN1_ReceiveFrom@index^(0+1280),w,c
  3974  0044CC  ECF6  F01F         	call	_Receive
  3975  0044D0  6E25               	movwf	CAN1_ReceiveFrom@status^(0+1280),c
  3976                           
  3977                           ;mcc_generated_files/can1.c: 489:             break;
  3978  0044D2  EF74  F022         	goto	i2l2163
  3979  0044D6                     i2l2159:
  3980                           
  3981                           ;mcc_generated_files/can1.c: 491:     }
  3982  0044D6  2A27               	incf	CAN1_ReceiveFrom@index^(0+1280),f,c
  3983  0044D8  5027               	movf	CAN1_ReceiveFrom@index^(0+1280),w,c
  3984  0044DA  B4D8               	btfsc	status,2,c
  3985  0044DC  EF72  F022         	goto	i2u132_41
  3986  0044E0  EF74  F022         	goto	i2u132_40
  3987  0044E4                     i2u132_41:
  3988  0044E4  EF4E  F022         	goto	i2l2155
  3989  0044E8                     i2u132_40:
  3990  0044E8                     i2l2163:
  3991                           
  3992                           ;mcc_generated_files/can1.c: 493:     return status;
  3993  0044E8  5025               	movf	CAN1_ReceiveFrom@status^(0+1280),w,c
  3994  0044EA  0012               	return		;funcret
  3995  0044EC                     __end_of_CAN1_ReceiveFrom:
  3996                           	callstack 0
  3997                           
  3998 ;; *************** function _Receive *****************
  3999 ;; Defined at:
  4000 ;;		line 429 in file "mcc_generated_files/can1.c"
  4001 ;; Parameters:    Size  Location     Type
  4002 ;;  index           1    wreg     unsigned char 
  4003 ;;  channel         1   23[COMRAM] enum E23103
  4004 ;;  rxCanMsg        2   24[COMRAM] PTR struct .
  4005 ;;		 -> DefaultFIFO1NotEmptyHandler@Currently_Processing(7), 
  4006 ;; Auto vars:     Size  Location     Type
  4007 ;;  index           1   32[COMRAM] unsigned char 
  4008 ;;  rxFifoObj       2   29[COMRAM] PTR unsigned char 
  4009 ;;		 -> RAM(14335), 
  4010 ;;  rxMsgStatus     1   31[COMRAM] enum E23148
  4011 ;;  status          1   28[COMRAM] _Bool 
  4012 ;; Return value:  Size  Location     Type
  4013 ;;                  1    wreg      _Bool 
  4014 ;; Registers used:
  4015 ;;		wreg, fsr2l, fsr2h, status,2, status,0, tblptrl, tblptrh, tblptru, prodl, prodh, cstack
  4016 ;; Tracked objects:
  4017 ;;		On entry : 0/0
  4018 ;;		On exit  : 0/0
  4019 ;;		Unchanged: 0/0
  4020 ;; Data sizes:     COMRAM   BANK5   BANK6   BANK7   BANK8   BANK9  BANK10  BANK11  BANK12  BANK13  BANK14  BANK15  BANK1
      +6  BANK17  BANK18  BANK19  BANK20  BANK21  BANK22  BANK23  BANK24  BANK25  BANK26  BANK27  BANK28  BANK29  BANK30  BANK3
      +1  BANK32  BANK33  BANK34  BANK35  BANK36  BANK37  BANK38  BANK39  BANK40  BANK41  BANK42  BANK43  BANK44  BANK45  BANK4
      +6  BANK47  BANK48  BANK49  BANK50  BANK51  BANK52  BANK53  BANK54  BANK55
  4021 ;;      Params:         3       0       0       0       0       0       0       0       0       0       0       0       
      +0       0       0       0       0       0       0       0       0       0       0       0       0       0       0       
      +0       0       0       0       0       0       0       0       0       0       0       0       0       0       0       
      +0       0       0       0       0       0       0       0       0       0
  4022 ;;      Locals:         5       0       0       0       0       0       0       0       0       0       0       0       
      +0       0       0       0       0       0       0       0       0       0       0       0       0       0       0       
      +0       0       0       0       0       0       0       0       0       0       0       0       0       0       0       
      +0       0       0       0       0       0       0       0       0       0
  4023 ;;      Temps:          2       0       0       0       0       0       0       0       0       0       0       0       
      +0       0       0       0       0       0       0       0       0       0       0       0       0       0       0       
      +0       0       0       0       0       0       0       0       0       0       0       0       0       0       0       
      +0       0       0       0       0       0       0       0       0       0
  4024 ;;      Totals:        10       0       0       0       0       0       0       0       0       0       0       0       
      +0       0       0       0       0       0       0       0       0       0       0       0       0       0       0       
      +0       0       0       0       0       0       0       0       0       0       0       0       0       0       0       
      +0       0       0       0       0       0       0       0       0       0
  4025 ;;Total ram usage:       10 bytes
  4026 ;; Hardware stack levels used:    1
  4027 ;; Hardware stack levels required when called:    2
  4028 ;; This function calls:
  4029 ;;		_GetRxFifoDepth
  4030 ;;		_GetRxFifoStatus
  4031 ;;		_ReadMessageFromFifo
  4032 ;; This function is called by:
  4033 ;;		_CAN1_ReceiveFrom
  4034 ;;		_CAN1_Receive
  4035 ;; This function uses a non-reentrant model
  4036 ;;
  4037                           
  4038                           	psect	text31
  4039  003FEC                     __ptext31:
  4040                           	callstack 0
  4041  003FEC                     _Receive:
  4042                           	callstack 117
  4043                           
  4044                           ;incstack = 0
  4045                           ;Receive@index stored from wreg
  4046  003FEC  6E21               	movwf	Receive@index^(0+1280),c
  4047  003FEE                     
  4048                           ;mcc_generated_files/can1.c: 429: static _Bool Receive(uint8_t index, CAN1_RX_FIFO_CHANN
      +                          ELS channel, CAN_MSG_OBJ *rxCanMsg);mcc_generated_files/can1.c: 430: {;mcc_generated_fil
      +                          es/can1.c: 431:     _Bool status = 0;
  4049  003FEE  0E00               	movlw	0
  4050  003FF0  6E1D               	movwf	Receive@status^(0+1280),c
  4051  003FF2                     
  4052                           ;mcc_generated_files/can1.c: 432:     CAN_RX_FIFO_STATUS rxMsgStatus = GetRxFifoStatus(c
      +                          hannel);
  4053  003FF2  5018               	movf	Receive@channel^(0+1280),w,c
  4054  003FF4  EC04  F024         	call	_GetRxFifoStatus
  4055  003FF8  6E20               	movwf	Receive@rxMsgStatus^(0+1280),c
  4056  003FFA                     
  4057                           ;mcc_generated_files/can1.c: 434:     if (CAN_RX_MSG_AVAILABLE == (rxMsgStatus & CAN_RX_
      +                          MSG_AVAILABLE))
  4058  003FFA  A020               	btfss	Receive@rxMsgStatus^(0+1280),0,c
  4059  003FFC  EF02  F020         	goto	i2u100_41
  4060  004000  EF04  F020         	goto	i2u100_40
  4061  004004                     i2u100_41:
  4062  004004  EF6A  F020         	goto	i2l2023
  4063  004008                     i2u100_40:
  4064  004008                     
  4065                           ;mcc_generated_files/can1.c: 435:     {;mcc_generated_files/can1.c: 436:         uint8_t
      +                           *rxFifoObj = (uint8_t *) FIFO[channel].UA;
  4066  004008  5018               	movf	Receive@channel^(0+1280),w,c
  4067  00400A  0D0C               	mullw	12
  4068  00400C  0E58               	movlw	88
  4069  00400E  24F3               	addwf	243,w,c
  4070  004010  6ED9               	movwf	fsr2l,c
  4071  004012  0E01               	movlw	1
  4072  004014  20F4               	addwfc	prodh,w,c
  4073  004016  6EDA               	movwf	fsr2h,c
  4074  004018  0061 F378  F51E    	movff	postinc2,Receive@rxFifoObj
  4075  00401E  0061 F374  F51F    	movff	postdec2,Receive@rxFifoObj+1
  4076  004024                     
  4077                           ;mcc_generated_files/can1.c: 438:         if (rxFifoObj != ((void*)0))
  4078  004024  501E               	movf	Receive@rxFifoObj^(0+1280),w,c
  4079  004026  101F               	iorwf	(Receive@rxFifoObj+1)^(0+1280),w,c
  4080  004028  B4D8               	btfsc	status,2,c
  4081  00402A  EF19  F020         	goto	i2u101_41
  4082  00402E  EF1B  F020         	goto	i2u101_40
  4083  004032                     i2u101_41:
  4084  004032  EF6A  F020         	goto	i2l2023
  4085  004036                     i2u101_40:
  4086  004036                     
  4087                           ;mcc_generated_files/can1.c: 439:         {;mcc_generated_files/can1.c: 440:            
      +                           ReadMessageFromFifo(rxFifoObj, rxCanMsg);
  4088  004036  C51E  F50C         	movff	Receive@rxFifoObj,ReadMessageFromFifo@rxFifoObj
  4089  00403A  C51F  F50D         	movff	Receive@rxFifoObj+1,ReadMessageFromFifo@rxFifoObj+1
  4090  00403E  C519  F50E         	movff	Receive@rxCanMsg,ReadMessageFromFifo@rxCanMsg
  4091  004042  C51A  F50F         	movff	Receive@rxCanMsg+1,ReadMessageFromFifo@rxCanMsg+1
  4092  004046  EC2D  F01D         	call	_ReadMessageFromFifo	;wreg free
  4093  00404A                     
  4094                           ;mcc_generated_files/can1.c: 441:             FIFO[channel].CONH |= 0x1;
  4095  00404A  5018               	movf	Receive@channel^(0+1280),w,c
  4096  00404C  0D0C               	mullw	12
  4097  00404E  0E51               	movlw	81
  4098  004050  24F3               	addwf	243,w,c
  4099  004052  6ED9               	movwf	fsr2l,c
  4100  004054  0E01               	movlw	1
  4101  004056  20F4               	addwfc	prodh,w,c
  4102  004058  6EDA               	movwf	fsr2h,c
  4103  00405A  0E00               	movlw	0
  4104  00405C  80DB               	bsf	plusw2,0,c
  4105  00405E                     
  4106                           ;mcc_generated_files/can1.c: 443:             rxFifos[index].fifoHead += 1;
  4107  00405E  5021               	movf	Receive@index^(0+1280),w,c
  4108  004060  0D02               	mullw	2
  4109  004062  0E64               	movlw	low (_rxFifos+1)
  4110  004064  24F3               	addwf	243,w,c
  4111  004066  6ED9               	movwf	fsr2l,c
  4112  004068  0E05               	movlw	high (_rxFifos+1)
  4113  00406A  20F4               	addwfc	prodh,w,c
  4114  00406C  6EDA               	movwf	fsr2h,c
  4115  00406E  2ADF               	incf	indf2,f,c
  4116  004070                     
  4117                           ;mcc_generated_files/can1.c: 444:             if (rxFifos[index].fifoHead >= GetRxFifoDe
      +                          pth(channel))
  4118  004070  5018               	movf	Receive@channel^(0+1280),w,c
  4119  004072  ECDC  F023         	call	_GetRxFifoDepth
  4120  004076  6E1B               	movwf	??_Receive^(0+1280),c
  4121  004078  5021               	movf	Receive@index^(0+1280),w,c
  4122  00407A  0D02               	mullw	2
  4123  00407C  0E64               	movlw	low (_rxFifos+1)
  4124  00407E  24F3               	addwf	243,w,c
  4125  004080  6ED9               	movwf	fsr2l,c
  4126  004082  0E05               	movlw	high (_rxFifos+1)
  4127  004084  20F4               	addwfc	prodh,w,c
  4128  004086  6EDA               	movwf	fsr2h,c
  4129  004088  501B               	movf	??_Receive^(0+1280),w,c
  4130  00408A  5CDE               	subwf	postinc2,w,c
  4131  00408C  A0D8               	btfss	status,0,c
  4132  00408E  EF4B  F020         	goto	i2u102_41
  4133  004092  EF4D  F020         	goto	i2u102_40
  4134  004096                     i2u102_41:
  4135  004096  EF57  F020         	goto	i2l2017
  4136  00409A                     i2u102_40:
  4137  00409A                     
  4138                           ;mcc_generated_files/can1.c: 445:             {;mcc_generated_files/can1.c: 446:        
      +                                   rxFifos[index].fifoHead = 0;
  4139  00409A  5021               	movf	Receive@index^(0+1280),w,c
  4140  00409C  0D02               	mullw	2
  4141  00409E  0E64               	movlw	low (_rxFifos+1)
  4142  0040A0  24F3               	addwf	243,w,c
  4143  0040A2  6ED9               	movwf	fsr2l,c
  4144  0040A4  0E05               	movlw	high (_rxFifos+1)
  4145  0040A6  20F4               	addwfc	prodh,w,c
  4146  0040A8  6EDA               	movwf	fsr2h,c
  4147  0040AA  0E00               	movlw	0
  4148  0040AC  6EDF               	movwf	indf2,c
  4149  0040AE                     i2l2017:
  4150                           
  4151                           ;mcc_generated_files/can1.c: 449:             if (CAN_RX_MSG_OVERFLOW == (rxMsgStatus & 
      +                          CAN_RX_MSG_OVERFLOW))
  4152  0040AE  A620               	btfss	Receive@rxMsgStatus^(0+1280),3,c
  4153  0040B0  EF5C  F020         	goto	i2u103_41
  4154  0040B4  EF5E  F020         	goto	i2u103_40
  4155  0040B8                     i2u103_41:
  4156  0040B8  EF68  F020         	goto	i2l2021
  4157  0040BC                     i2u103_40:
  4158  0040BC                     
  4159                           ;mcc_generated_files/can1.c: 450:             {;mcc_generated_files/can1.c: 451:        
      +                                   FIFO[channel].STAL &= ~0x8;
  4160  0040BC  5018               	movf	Receive@channel^(0+1280),w,c
  4161  0040BE  0D0C               	mullw	12
  4162  0040C0  0E54               	movlw	84
  4163  0040C2  24F3               	addwf	243,w,c
  4164  0040C4  6ED9               	movwf	fsr2l,c
  4165  0040C6  0E01               	movlw	1
  4166  0040C8  20F4               	addwfc	prodh,w,c
  4167  0040CA  6EDA               	movwf	fsr2h,c
  4168  0040CC  0EF7               	movlw	247
  4169  0040CE  16DF               	andwf	indf2,f,c
  4170  0040D0                     i2l2021:
  4171                           
  4172                           ;mcc_generated_files/can1.c: 454:             status = 1;
  4173  0040D0  0E01               	movlw	1
  4174  0040D2  6E1D               	movwf	Receive@status^(0+1280),c
  4175  0040D4                     i2l2023:
  4176                           
  4177                           ;mcc_generated_files/can1.c: 458:     return status;
  4178  0040D4  501D               	movf	Receive@status^(0+1280),w,c
  4179  0040D6  0012               	return		;funcret
  4180  0040D8                     __end_of_Receive:
  4181                           	callstack 0
  4182                           
  4183 ;; *************** function _ReadMessageFromFifo *****************
  4184 ;; Defined at:
  4185 ;;		line 395 in file "mcc_generated_files/can1.c"
  4186 ;; Parameters:    Size  Location     Type
  4187 ;;  rxFifoObj       2   11[COMRAM] PTR unsigned char 
  4188 ;;		 -> RAM(14335), 
  4189 ;;  rxCanMsg        2   13[COMRAM] PTR struct .
  4190 ;;		 -> DefaultFIFO1NotEmptyHandler@Currently_Processing(7), 
  4191 ;; Auto vars:     Size  Location     Type
  4192 ;;  msgId           4   18[COMRAM] unsigned long 
  4193 ;;  status          1   22[COMRAM] unsigned char 
  4194 ;;  payloadOffse    1    0        const unsigned char 
  4195 ;; Return value:  Size  Location     Type
  4196 ;;                  1    wreg      void 
  4197 ;; Registers used:
  4198 ;;		wreg, fsr2l, fsr2h, status,2, status,0, tblptrl, tblptrh, tblptru, cstack
  4199 ;; Tracked objects:
  4200 ;;		On entry : 0/0
  4201 ;;		On exit  : 0/0
  4202 ;;		Unchanged: 0/0
  4203 ;; Data sizes:     COMRAM   BANK5   BANK6   BANK7   BANK8   BANK9  BANK10  BANK11  BANK12  BANK13  BANK14  BANK15  BANK1
      +6  BANK17  BANK18  BANK19  BANK20  BANK21  BANK22  BANK23  BANK24  BANK25  BANK26  BANK27  BANK28  BANK29  BANK30  BANK3
      +1  BANK32  BANK33  BANK34  BANK35  BANK36  BANK37  BANK38  BANK39  BANK40  BANK41  BANK42  BANK43  BANK44  BANK45  BANK4
      +6  BANK47  BANK48  BANK49  BANK50  BANK51  BANK52  BANK53  BANK54  BANK55
  4204 ;;      Params:         4       0       0       0       0       0       0       0       0       0       0       0       
      +0       0       0       0       0       0       0       0       0       0       0       0       0       0       0       
      +0       0       0       0       0       0       0       0       0       0       0       0       0       0       0       
      +0       0       0       0       0       0       0       0       0       0
  4205 ;;      Locals:         6       0       0       0       0       0       0       0       0       0       0       0       
      +0       0       0       0       0       0       0       0       0       0       0       0       0       0       0       
      +0       0       0       0       0       0       0       0       0       0       0       0       0       0       0       
      +0       0       0       0       0       0       0       0       0       0
  4206 ;;      Temps:          2       0       0       0       0       0       0       0       0       0       0       0       
      +0       0       0       0       0       0       0       0       0       0       0       0       0       0       0       
      +0       0       0       0       0       0       0       0       0       0       0       0       0       0       0       
      +0       0       0       0       0       0       0       0       0       0
  4207 ;;      Totals:        12       0       0       0       0       0       0       0       0       0       0       0       
      +0       0       0       0       0       0       0       0       0       0       0       0       0       0       0       
      +0       0       0       0       0       0       0       0       0       0       0       0       0       0       0       
      +0       0       0       0       0       0       0       0       0       0
  4208 ;;Total ram usage:       12 bytes
  4209 ;; Hardware stack levels used:    1
  4210 ;; Hardware stack levels required when called:    1
  4211 ;; This function calls:
  4212 ;;		_memcpy
  4213 ;; This function is called by:
  4214 ;;		_Receive
  4215 ;; This function uses a non-reentrant model
  4216 ;;
  4217                           
  4218                           	psect	text32
  4219  003A5A                     __ptext32:
  4220                           	callstack 0
  4221  003A5A                     _ReadMessageFromFifo:
  4222                           	callstack 117
  4223  003A5A                     
  4224                           ;mcc_generated_files/can1.c: 395: static void ReadMessageFromFifo(uint8_t *rxFifoObj, CA
      +                          N_MSG_OBJ *rxCanMsg);mcc_generated_files/can1.c: 396: {;mcc_generated_files/can1.c: 397:
      +                               uint32_t msgId;;mcc_generated_files/can1.c: 398:     uint8_t status = rxFifoObj[4];
  4225  003A5A  EE20 F004          	lfsr	2,4
  4226  003A5E  500C               	movf	ReadMessageFromFifo@rxFifoObj^(0+1280),w,c
  4227  003A60  26D9               	addwf	fsr2l,f,c
  4228  003A62  500D               	movf	(ReadMessageFromFifo@rxFifoObj+1)^(0+1280),w,c
  4229  003A64  22DA               	addwfc	fsr2h,f,c
  4230  003A66  50DF               	movf	indf2,w,c
  4231  003A68  6E17               	movwf	ReadMessageFromFifo@status^(0+1280),c
  4232  003A6A                     
  4233                           ;mcc_generated_files/can1.c: 405:     rxCanMsg->field.dlc = status;
  4234  003A6A  C517  F510         	movff	ReadMessageFromFifo@status,??_ReadMessageFromFifo
  4235  003A6E  EE20 F004          	lfsr	2,4
  4236  003A72  500E               	movf	ReadMessageFromFifo@rxCanMsg^(0+1280),w,c
  4237  003A74  26D9               	addwf	fsr2l,f,c
  4238  003A76  500F               	movf	(ReadMessageFromFifo@rxCanMsg+1)^(0+1280),w,c
  4239  003A78  22DA               	addwfc	fsr2h,f,c
  4240  003A7A  4610               	rlncf	??_ReadMessageFromFifo^(0+1280),f,c
  4241  003A7C  4610               	rlncf	??_ReadMessageFromFifo^(0+1280),f,c
  4242  003A7E  50DF               	movf	479,w,c
  4243  003A80  1810               	xorwf	??_ReadMessageFromFifo^(0+1280),w,c
  4244  003A82  0BC3               	andlw	-61
  4245  003A84  1810               	xorwf	??_ReadMessageFromFifo^(0+1280),w,c
  4246  003A86  6EDF               	movwf	479,c
  4247  003A88                     
  4248                           ;mcc_generated_files/can1.c: 406:     rxCanMsg->field.idType = (status & (1UL << (4U))) 
      +                          ? CAN_FRAME_EXT : CAN_FRAME_STD;
  4249  003A88  B817               	btfsc	ReadMessageFromFifo@status^(0+1280),4,c
  4250  003A8A  EF49  F01D         	goto	i2u89_41
  4251  003A8E  EF4D  F01D         	goto	i2u89_40
  4252  003A92                     i2u89_41:
  4253  003A92  6A10               	clrf	??_ReadMessageFromFifo^(0+1280),c
  4254  003A94  2A10               	incf	??_ReadMessageFromFifo^(0+1280),f,c
  4255  003A96  EF4E  F01D         	goto	i2u90_48
  4256  003A9A                     i2u89_40:
  4257  003A9A  6A10               	clrf	??_ReadMessageFromFifo^(0+1280),c
  4258  003A9C                     i2u90_48:
  4259  003A9C  EE20 F004          	lfsr	2,4
  4260  003AA0  500E               	movf	ReadMessageFromFifo@rxCanMsg^(0+1280),w,c
  4261  003AA2  26D9               	addwf	fsr2l,f,c
  4262  003AA4  500F               	movf	(ReadMessageFromFifo@rxCanMsg+1)^(0+1280),w,c
  4263  003AA6  22DA               	addwfc	fsr2h,f,c
  4264  003AA8  50DF               	movf	479,w,c
  4265  003AAA  1810               	xorwf	??_ReadMessageFromFifo^(0+1280),w,c
  4266  003AAC  0BFE               	andlw	-2
  4267  003AAE  1810               	xorwf	??_ReadMessageFromFifo^(0+1280),w,c
  4268  003AB0  6EDF               	movwf	479,c
  4269  003AB2                     
  4270                           ;mcc_generated_files/can1.c: 407:     rxCanMsg->field.frameType = (status & (1UL << (5U)
      +                          )) ? CAN_FRAME_RTR : CAN_FRAME_DATA;
  4271  003AB2  BA17               	btfsc	ReadMessageFromFifo@status^(0+1280),5,c
  4272  003AB4  EF5E  F01D         	goto	i2u91_41
  4273  003AB8  EF62  F01D         	goto	i2u91_40
  4274  003ABC                     i2u91_41:
  4275  003ABC  6A10               	clrf	??_ReadMessageFromFifo^(0+1280),c
  4276  003ABE  2A10               	incf	??_ReadMessageFromFifo^(0+1280),f,c
  4277  003AC0  EF63  F01D         	goto	i2u92_48
  4278  003AC4                     i2u91_40:
  4279  003AC4  6A10               	clrf	??_ReadMessageFromFifo^(0+1280),c
  4280  003AC6                     i2u92_48:
  4281  003AC6  EE20 F004          	lfsr	2,4
  4282  003ACA  500E               	movf	ReadMessageFromFifo@rxCanMsg^(0+1280),w,c
  4283  003ACC  26D9               	addwf	fsr2l,f,c
  4284  003ACE  500F               	movf	(ReadMessageFromFifo@rxCanMsg+1)^(0+1280),w,c
  4285  003AD0  22DA               	addwfc	fsr2h,f,c
  4286  003AD2  4610               	rlncf	??_ReadMessageFromFifo^(0+1280),f,c
  4287  003AD4  50DF               	movf	479,w,c
  4288  003AD6  1810               	xorwf	??_ReadMessageFromFifo^(0+1280),w,c
  4289  003AD8  0BFD               	andlw	-3
  4290  003ADA  1810               	xorwf	??_ReadMessageFromFifo^(0+1280),w,c
  4291  003ADC  6EDF               	movwf	479,c
  4292  003ADE                     
  4293                           ;mcc_generated_files/can1.c: 408:     rxCanMsg->field.brs = (status & (1UL << (6U))) ? C
      +                          AN_BRS_MODE : CAN_NON_BRS_MODE;
  4294  003ADE  BC17               	btfsc	ReadMessageFromFifo@status^(0+1280),6,c
  4295  003AE0  EF74  F01D         	goto	i2u93_41
  4296  003AE4  EF78  F01D         	goto	i2u93_40
  4297  003AE8                     i2u93_41:
  4298  003AE8  6A10               	clrf	??_ReadMessageFromFifo^(0+1280),c
  4299  003AEA  2A10               	incf	??_ReadMessageFromFifo^(0+1280),f,c
  4300  003AEC  EF79  F01D         	goto	i2u94_48
  4301  003AF0                     i2u93_40:
  4302  003AF0  6A10               	clrf	??_ReadMessageFromFifo^(0+1280),c
  4303  003AF2                     i2u94_48:
  4304  003AF2  EE20 F004          	lfsr	2,4
  4305  003AF6  500E               	movf	ReadMessageFromFifo@rxCanMsg^(0+1280),w,c
  4306  003AF8  26D9               	addwf	fsr2l,f,c
  4307  003AFA  500F               	movf	(ReadMessageFromFifo@rxCanMsg+1)^(0+1280),w,c
  4308  003AFC  22DA               	addwfc	fsr2h,f,c
  4309  003AFE  3210               	rrcf	??_ReadMessageFromFifo^(0+1280),f,c
  4310  003B00  3210               	rrcf	??_ReadMessageFromFifo^(0+1280),f,c
  4311  003B02  50DF               	movf	479,w,c
  4312  003B04  1810               	xorwf	??_ReadMessageFromFifo^(0+1280),w,c
  4313  003B06  0B7F               	andlw	-129
  4314  003B08  1810               	xorwf	??_ReadMessageFromFifo^(0+1280),w,c
  4315  003B0A  6EDF               	movwf	479,c
  4316  003B0C                     
  4317                           ;mcc_generated_files/can1.c: 409:     rxCanMsg->field.formatType = (status & (1UL << (7U
      +                          ))) ? CAN_FRAME_EXT : CAN_FRAME_STD;
  4318  003B0C  BE17               	btfsc	ReadMessageFromFifo@status^(0+1280),7,c
  4319  003B0E  EF8B  F01D         	goto	i2u95_41
  4320  003B12  EF8F  F01D         	goto	i2u95_40
  4321  003B16                     i2u95_41:
  4322  003B16  6A10               	clrf	??_ReadMessageFromFifo^(0+1280),c
  4323  003B18  2A10               	incf	??_ReadMessageFromFifo^(0+1280),f,c
  4324  003B1A  EF90  F01D         	goto	i2u96_48
  4325  003B1E                     i2u95_40:
  4326  003B1E  6A10               	clrf	??_ReadMessageFromFifo^(0+1280),c
  4327  003B20                     i2u96_48:
  4328  003B20  EE20 F004          	lfsr	2,4
  4329  003B24  500E               	movf	ReadMessageFromFifo@rxCanMsg^(0+1280),w,c
  4330  003B26  26D9               	addwf	fsr2l,f,c
  4331  003B28  500F               	movf	(ReadMessageFromFifo@rxCanMsg+1)^(0+1280),w,c
  4332  003B2A  22DA               	addwfc	fsr2h,f,c
  4333  003B2C  3A10               	swapf	??_ReadMessageFromFifo^(0+1280),f,c
  4334  003B2E  4610               	rlncf	??_ReadMessageFromFifo^(0+1280),f,c
  4335  003B30  4610               	rlncf	??_ReadMessageFromFifo^(0+1280),f,c
  4336  003B32  50DF               	movf	479,w,c
  4337  003B34  1810               	xorwf	??_ReadMessageFromFifo^(0+1280),w,c
  4338  003B36  0BBF               	andlw	-65
  4339  003B38  1810               	xorwf	??_ReadMessageFromFifo^(0+1280),w,c
  4340  003B3A  6EDF               	movwf	479,c
  4341  003B3C                     
  4342                           ;mcc_generated_files/can1.c: 411:     msgId = rxFifoObj[1] & (0x07U);
  4343  003B3C  EE20 F001          	lfsr	2,1
  4344  003B40  500C               	movf	ReadMessageFromFifo@rxFifoObj^(0+1280),w,c
  4345  003B42  26D9               	addwf	fsr2l,f,c
  4346  003B44  500D               	movf	(ReadMessageFromFifo@rxFifoObj+1)^(0+1280),w,c
  4347  003B46  22DA               	addwfc	fsr2h,f,c
  4348  003B48  50DF               	movf	indf2,w,c
  4349  003B4A  6E10               	movwf	??_ReadMessageFromFifo^(0+1280),c
  4350  003B4C  0E07               	movlw	7
  4351  003B4E  1610               	andwf	??_ReadMessageFromFifo^(0+1280),f,c
  4352  003B50  5010               	movf	??_ReadMessageFromFifo^(0+1280),w,c
  4353  003B52  6E13               	movwf	ReadMessageFromFifo@msgId^(0+1280),c
  4354  003B54  6A14               	clrf	(ReadMessageFromFifo@msgId+1)^(0+1280),c
  4355  003B56  6A15               	clrf	(ReadMessageFromFifo@msgId+2)^(0+1280),c
  4356  003B58  6A16               	clrf	(ReadMessageFromFifo@msgId+3)^(0+1280),c
  4357  003B5A                     
  4358                           ;mcc_generated_files/can1.c: 412:     msgId <<= (8U);
  4359  003B5A  C515  F516         	movff	ReadMessageFromFifo@msgId+2,ReadMessageFromFifo@msgId+3
  4360  003B5E  C514  F515         	movff	ReadMessageFromFifo@msgId+1,ReadMessageFromFifo@msgId+2
  4361  003B62  C513  F514         	movff	ReadMessageFromFifo@msgId,ReadMessageFromFifo@msgId+1
  4362  003B66  6A13               	clrf	ReadMessageFromFifo@msgId^(0+1280),c
  4363  003B68                     
  4364                           ;mcc_generated_files/can1.c: 413:     msgId |= rxFifoObj[0];
  4365  003B68  0061  F430  F4D9   	movff	ReadMessageFromFifo@rxFifoObj,fsr2l
  4366  003B6E  0061  F434  F4DA   	movff	ReadMessageFromFifo@rxFifoObj+1,fsr2h
  4367  003B74  50DF               	movf	indf2,w,c
  4368  003B76  6E10               	movwf	??_ReadMessageFromFifo^(0+1280),c
  4369  003B78  5010               	movf	??_ReadMessageFromFifo^(0+1280),w,c
  4370  003B7A  1213               	iorwf	ReadMessageFromFifo@msgId^(0+1280),f,c
  4371  003B7C                     
  4372                           ;mcc_generated_files/can1.c: 414:     if (CAN_FRAME_EXT == rxCanMsg->field.idType)
  4373  003B7C  EE20 F004          	lfsr	2,4
  4374  003B80  500E               	movf	ReadMessageFromFifo@rxCanMsg^(0+1280),w,c
  4375  003B82  26D9               	addwf	fsr2l,f,c
  4376  003B84  500F               	movf	(ReadMessageFromFifo@rxCanMsg+1)^(0+1280),w,c
  4377  003B86  22DA               	addwfc	fsr2h,f,c
  4378  003B88  A0DF               	btfss	indf2,0,c
  4379  003B8A  EFC9  F01D         	goto	i2u97_41
  4380  003B8E  EFCB  F01D         	goto	i2u97_40
  4381  003B92                     i2u97_41:
  4382  003B92  EF0C  F01E         	goto	i2l1985
  4383  003B96                     i2u97_40:
  4384  003B96                     
  4385                           ;mcc_generated_files/can1.c: 415:     {;mcc_generated_files/can1.c: 416:         msgId <
      +                          <= (5U);
  4386  003B96  0E05               	movlw	5
  4387  003B98                     i2u98_45:
  4388  003B98  90D8               	bcf	status,0,c
  4389  003B9A  3613               	rlcf	ReadMessageFromFifo@msgId^(0+1280),f,c
  4390  003B9C  3614               	rlcf	(ReadMessageFromFifo@msgId+1)^(0+1280),f,c
  4391  003B9E  3615               	rlcf	(ReadMessageFromFifo@msgId+2)^(0+1280),f,c
  4392  003BA0  3616               	rlcf	(ReadMessageFromFifo@msgId+3)^(0+1280),f,c
  4393  003BA2  2EE8               	decfsz	wreg,f,c
  4394  003BA4  EFCC  F01D         	goto	i2u98_45
  4395  003BA8                     
  4396                           ;mcc_generated_files/can1.c: 417:         msgId |= (rxFifoObj[3] & (0x1FU));
  4397  003BA8  EE20 F003          	lfsr	2,3
  4398  003BAC  500C               	movf	ReadMessageFromFifo@rxFifoObj^(0+1280),w,c
  4399  003BAE  26D9               	addwf	fsr2l,f,c
  4400  003BB0  500D               	movf	(ReadMessageFromFifo@rxFifoObj+1)^(0+1280),w,c
  4401  003BB2  22DA               	addwfc	fsr2h,f,c
  4402  003BB4  50DF               	movf	indf2,w,c
  4403  003BB6  6E10               	movwf	??_ReadMessageFromFifo^(0+1280),c
  4404  003BB8  0E1F               	movlw	31
  4405  003BBA  1610               	andwf	??_ReadMessageFromFifo^(0+1280),f,c
  4406  003BBC  5010               	movf	??_ReadMessageFromFifo^(0+1280),w,c
  4407  003BBE  1213               	iorwf	ReadMessageFromFifo@msgId^(0+1280),f,c
  4408  003BC0                     
  4409                           ;mcc_generated_files/can1.c: 418:         msgId <<= (8U);
  4410  003BC0  C515  F516         	movff	ReadMessageFromFifo@msgId+2,ReadMessageFromFifo@msgId+3
  4411  003BC4  C514  F515         	movff	ReadMessageFromFifo@msgId+1,ReadMessageFromFifo@msgId+2
  4412  003BC8  C513  F514         	movff	ReadMessageFromFifo@msgId,ReadMessageFromFifo@msgId+1
  4413  003BCC  6A13               	clrf	ReadMessageFromFifo@msgId^(0+1280),c
  4414  003BCE                     
  4415                           ;mcc_generated_files/can1.c: 419:         msgId |= rxFifoObj[2];
  4416  003BCE  EE20 F002          	lfsr	2,2
  4417  003BD2  500C               	movf	ReadMessageFromFifo@rxFifoObj^(0+1280),w,c
  4418  003BD4  26D9               	addwf	fsr2l,f,c
  4419  003BD6  500D               	movf	(ReadMessageFromFifo@rxFifoObj+1)^(0+1280),w,c
  4420  003BD8  22DA               	addwfc	fsr2h,f,c
  4421  003BDA  50DF               	movf	indf2,w,c
  4422  003BDC  6E10               	movwf	??_ReadMessageFromFifo^(0+1280),c
  4423  003BDE  5010               	movf	??_ReadMessageFromFifo^(0+1280),w,c
  4424  003BE0  1213               	iorwf	ReadMessageFromFifo@msgId^(0+1280),f,c
  4425  003BE2                     
  4426                           ;mcc_generated_files/can1.c: 420:         msgId <<= (5U);
  4427  003BE2  0E05               	movlw	5
  4428  003BE4                     i2u99_45:
  4429  003BE4  90D8               	bcf	status,0,c
  4430  003BE6  3613               	rlcf	ReadMessageFromFifo@msgId^(0+1280),f,c
  4431  003BE8  3614               	rlcf	(ReadMessageFromFifo@msgId+1)^(0+1280),f,c
  4432  003BEA  3615               	rlcf	(ReadMessageFromFifo@msgId+2)^(0+1280),f,c
  4433  003BEC  3616               	rlcf	(ReadMessageFromFifo@msgId+3)^(0+1280),f,c
  4434  003BEE  2EE8               	decfsz	wreg,f,c
  4435  003BF0  EFF2  F01D         	goto	i2u99_45
  4436  003BF4                     
  4437                           ;mcc_generated_files/can1.c: 421:         msgId |= (rxFifoObj[1] & (0xF8U)) >> (3U);
  4438  003BF4  EE20 F001          	lfsr	2,1
  4439  003BF8  500C               	movf	ReadMessageFromFifo@rxFifoObj^(0+1280),w,c
  4440  003BFA  26D9               	addwf	fsr2l,f,c
  4441  003BFC  500D               	movf	(ReadMessageFromFifo@rxFifoObj+1)^(0+1280),w,c
  4442  003BFE  22DA               	addwfc	fsr2h,f,c
  4443  003C00  50DF               	movf	indf2,w,c
  4444  003C02  6E10               	movwf	??_ReadMessageFromFifo^(0+1280),c
  4445  003C04  90D8               	bcf	status,0,c
  4446  003C06  3210               	rrcf	??_ReadMessageFromFifo^(0+1280),f,c
  4447  003C08  90D8               	bcf	status,0,c
  4448  003C0A  3210               	rrcf	??_ReadMessageFromFifo^(0+1280),f,c
  4449  003C0C  90D8               	bcf	status,0,c
  4450  003C0E  3210               	rrcf	??_ReadMessageFromFifo^(0+1280),f,c
  4451  003C10  0E1F               	movlw	31
  4452  003C12  1610               	andwf	??_ReadMessageFromFifo^(0+1280),f,c
  4453  003C14  5010               	movf	??_ReadMessageFromFifo^(0+1280),w,c
  4454  003C16  1213               	iorwf	ReadMessageFromFifo@msgId^(0+1280),f,c
  4455  003C18                     i2l1985:
  4456                           
  4457                           ;mcc_generated_files/can1.c: 423:     rxCanMsg->msgId = msgId;
  4458  003C18  0061  F438  F4D9   	movff	ReadMessageFromFifo@rxCanMsg,fsr2l
  4459  003C1E  0061  F43C  F4DA   	movff	ReadMessageFromFifo@rxCanMsg+1,fsr2h
  4460  003C24  0061  F44C  F4DE   	movff	ReadMessageFromFifo@msgId,postinc2
  4461  003C2A  0061  F450  F4DE   	movff	ReadMessageFromFifo@msgId+1,postinc2
  4462  003C30  0061  F454  F4DE   	movff	ReadMessageFromFifo@msgId+2,postinc2
  4463  003C36  0061  F458  F4DE   	movff	ReadMessageFromFifo@msgId+3,postinc2
  4464  003C3C                     
  4465                           ;mcc_generated_files/can1.c: 425:     memcpy(rxMsgData, rxFifoObj + payloadOffsetBytes, 
      +                          (DLC_BYTES[(rxCanMsg->field.dlc)]));
  4466  003C3C  0E49               	movlw	low _rxMsgData
  4467  003C3E  6E01               	movwf	memcpy@d1^(0+1280),c
  4468  003C40  0E05               	movlw	high _rxMsgData
  4469  003C42  6E02               	movwf	(memcpy@d1+1)^(0+1280),c
  4470  003C44  0E08               	movlw	8
  4471  003C46  240C               	addwf	ReadMessageFromFifo@rxFifoObj^(0+1280),w,c
  4472  003C48  6E03               	movwf	memcpy@s1^(0+1280),c
  4473  003C4A  0E00               	movlw	0
  4474  003C4C  200D               	addwfc	(ReadMessageFromFifo@rxFifoObj+1)^(0+1280),w,c
  4475  003C4E  6E04               	movwf	(memcpy@s1+1)^(0+1280),c
  4476  003C50  EE20 F004          	lfsr	2,4
  4477  003C54  500E               	movf	ReadMessageFromFifo@rxCanMsg^(0+1280),w,c
  4478  003C56  26D9               	addwf	fsr2l,f,c
  4479  003C58  500F               	movf	(ReadMessageFromFifo@rxCanMsg+1)^(0+1280),w,c
  4480  003C5A  22DA               	addwfc	fsr2h,f,c
  4481  003C5C  30DF               	rrcf	479,w,c
  4482  003C5E  32E8               	rrcf	wreg,f,c
  4483  003C60  0B0F               	andlw	15
  4484  003C62  6E10               	movwf	??_ReadMessageFromFifo^(0+1280),c
  4485  003C64  6A11               	clrf	(??_ReadMessageFromFifo+1)^(0+1280),c
  4486  003C66  0E01               	movlw	low _DLC_BYTES
  4487  003C68  2410               	addwf	??_ReadMessageFromFifo^(0+1280),w,c
  4488  003C6A  6EF6               	movwf	tblptrl,c
  4489  003C6C  0E38               	movlw	high _DLC_BYTES
  4490  003C6E  2011               	addwfc	(??_ReadMessageFromFifo+1)^(0+1280),w,c
  4491  003C70  6EF7               	movwf	tblptrh,c
  4492  003C72                     	if	1	;There are 3 active tblptr bytes
  4493  003C72  6AF8               	clrf	tblptru,c
  4494  003C74  0E00               	movlw	low (__mediumconst shr (0+16))
  4495  003C76  22F8               	addwfc	tblptru,f,c
  4496  003C78                     	endif
  4497  003C78  0008               	tblrd		*
  4498  003C7A  50F5               	movf	tablat,w,c
  4499  003C7C  6E05               	movwf	memcpy@n^(0+1280),c
  4500  003C7E  6A06               	clrf	(memcpy@n+1)^(0+1280),c
  4501  003C80  EC76  F022         	call	_memcpy	;wreg free
  4502  003C84                     
  4503                           ;mcc_generated_files/can1.c: 426:     rxCanMsg->data = rxMsgData;
  4504  003C84  EE20 F005          	lfsr	2,5
  4505  003C88  500E               	movf	ReadMessageFromFifo@rxCanMsg^(0+1280),w,c
  4506  003C8A  26D9               	addwf	fsr2l,f,c
  4507  003C8C  500F               	movf	(ReadMessageFromFifo@rxCanMsg+1)^(0+1280),w,c
  4508  003C8E  22DA               	addwfc	fsr2h,f,c
  4509  003C90  0E49               	movlw	low _rxMsgData
  4510  003C92  6EDE               	movwf	postinc2,c
  4511  003C94  0E05               	movlw	high _rxMsgData
  4512  003C96  6EDD               	movwf	postdec2,c
  4513  003C98  0012               	return		;funcret
  4514  003C9A                     __end_of_ReadMessageFromFifo:
  4515                           	callstack 0
  4516                           
  4517 ;; *************** function _memcpy *****************
  4518 ;; Defined at:
  4519 ;;		line 4 in file "C:\Program Files\Microchip\xc8\v2.20\pic\sources\c99\common\memcpy.c"
  4520 ;; Parameters:    Size  Location     Type
  4521 ;;  d1              2    0[COMRAM] PTR void 
  4522 ;;		 -> RAM(14335), rxMsgData(8), 
  4523 ;;  s1              2    2[COMRAM] PTR const void 
  4524 ;;		 -> TU16A_DefaultInterruptHandler@Transmit_Data(8), RAM(14335), rxMsgData(8), DefaultFIFO1NotEmptyHandler@data_Out(8
      +), 
  4525 ;;  n               2    4[COMRAM] unsigned int 
  4526 ;; Auto vars:     Size  Location     Type
  4527 ;;  s               2    8[COMRAM] PTR const unsigned char 
  4528 ;;		 -> TU16A_DefaultInterruptHandler@Transmit_Data(8), RAM(14335), rxMsgData(8), DefaultFIFO1NotEmptyHandler@data_Out(8
      +), 
  4529 ;;  d               2    6[COMRAM] PTR unsigned char 
  4530 ;;		 -> RAM(14335), rxMsgData(8), 
  4531 ;;  tmp             1   10[COMRAM] unsigned char 
  4532 ;; Return value:  Size  Location     Type
  4533 ;;                  2    0[COMRAM] PTR void 
  4534 ;; Registers used:
  4535 ;;		wreg, fsr2l, fsr2h, status,2, status,0
  4536 ;; Tracked objects:
  4537 ;;		On entry : 0/0
  4538 ;;		On exit  : 0/0
  4539 ;;		Unchanged: 0/0
  4540 ;; Data sizes:     COMRAM   BANK5   BANK6   BANK7   BANK8   BANK9  BANK10  BANK11  BANK12  BANK13  BANK14  BANK15  BANK1
      +6  BANK17  BANK18  BANK19  BANK20  BANK21  BANK22  BANK23  BANK24  BANK25  BANK26  BANK27  BANK28  BANK29  BANK30  BANK3
      +1  BANK32  BANK33  BANK34  BANK35  BANK36  BANK37  BANK38  BANK39  BANK40  BANK41  BANK42  BANK43  BANK44  BANK45  BANK4
      +6  BANK47  BANK48  BANK49  BANK50  BANK51  BANK52  BANK53  BANK54  BANK55
  4541 ;;      Params:         6       0       0       0       0       0       0       0       0       0       0       0       
      +0       0       0       0       0       0       0       0       0       0       0       0       0       0       0       
      +0       0       0       0       0       0       0       0       0       0       0       0       0       0       0       
      +0       0       0       0       0       0       0       0       0       0
  4542 ;;      Locals:         5       0       0       0       0       0       0       0       0       0       0       0       
      +0       0       0       0       0       0       0       0       0       0       0       0       0       0       0       
      +0       0       0       0       0       0       0       0       0       0       0       0       0       0       0       
      +0       0       0       0       0       0       0       0       0       0
  4543 ;;      Temps:          0       0       0       0       0       0       0       0       0       0       0       0       
      +0       0       0       0       0       0       0       0       0       0       0       0       0       0       0       
      +0       0       0       0       0       0       0       0       0       0       0       0       0       0       0       
      +0       0       0       0       0       0       0       0       0       0
  4544 ;;      Totals:        11       0       0       0       0       0       0       0       0       0       0       0       
      +0       0       0       0       0       0       0       0       0       0       0       0       0       0       0       
      +0       0       0       0       0       0       0       0       0       0       0       0       0       0       0       
      +0       0       0       0       0       0       0       0       0       0
  4545 ;;Total ram usage:       11 bytes
  4546 ;; Hardware stack levels used:    1
  4547 ;; This function calls:
  4548 ;;		Nothing
  4549 ;; This function is called by:
  4550 ;;		_ReadMessageFromFifo
  4551 ;;		_WriteMessageToFifo
  4552 ;; This function uses a non-reentrant model
  4553 ;;
  4554                           
  4555                           	psect	text33
  4556  0044EC                     __ptext33:
  4557                           	callstack 0
  4558  0044EC                     _memcpy:
  4559                           	callstack 118
  4560  0044EC  C503  F509         	movff	memcpy@s1,memcpy@s
  4561  0044F0  C504  F50A         	movff	memcpy@s1+1,memcpy@s+1
  4562  0044F4  C501  F507         	movff	memcpy@d1,memcpy@d
  4563  0044F8  C502  F508         	movff	memcpy@d1+1,memcpy@d+1
  4564  0044FC  EF95  F022         	goto	i2l1941
  4565  004500                     i2l1933:
  4566  004500  0061  F424  F4D9   	movff	memcpy@s,fsr2l
  4567  004506  0061  F428  F4DA   	movff	memcpy@s+1,fsr2h
  4568  00450C  50DF               	movf	indf2,w,c
  4569  00450E  6E0B               	movwf	memcpy@tmp^(0+1280),c
  4570  004510  4A09               	infsnz	memcpy@s^(0+1280),f,c
  4571  004512  2A0A               	incf	(memcpy@s+1)^(0+1280),f,c
  4572  004514  0061  F41C  F4D9   	movff	memcpy@d,fsr2l
  4573  00451A  0061  F420  F4DA   	movff	memcpy@d+1,fsr2h
  4574  004520  0061  F42C  F4DF   	movff	memcpy@tmp,indf2
  4575  004526  4A07               	infsnz	memcpy@d^(0+1280),f,c
  4576  004528  2A08               	incf	(memcpy@d+1)^(0+1280),f,c
  4577  00452A                     i2l1941:
  4578  00452A  0605               	decf	memcpy@n^(0+1280),f,c
  4579  00452C  A0D8               	btfss	status,0,c
  4580  00452E  0606               	decf	(memcpy@n+1)^(0+1280),f,c
  4581  004530  2805               	incf	memcpy@n^(0+1280),w,c
  4582  004532  E106               	bnz	i2u88_41
  4583  004534  2806               	incf	(memcpy@n+1)^(0+1280),w,c
  4584  004536  A4D8               	btfss	status,2,c
  4585  004538  EFA0  F022         	goto	i2u88_41
  4586  00453C  EFA2  F022         	goto	i2u88_40
  4587  004540                     i2u88_41:
  4588  004540  EF80  F022         	goto	i2l1933
  4589  004544                     i2u88_40:
  4590  004544  0012               	return		;funcret
  4591  004546                     __end_of_memcpy:
  4592                           	callstack 0
  4593                           
  4594 ;; *************** function _GetRxFifoStatus *****************
  4595 ;; Defined at:
  4596 ;;		line 390 in file "mcc_generated_files/can1.c"
  4597 ;; Parameters:    Size  Location     Type
  4598 ;;  validChannel    1    wreg     unsigned char 
  4599 ;; Auto vars:     Size  Location     Type
  4600 ;;  validChannel    1    0[COMRAM] unsigned char 
  4601 ;; Return value:  Size  Location     Type
  4602 ;;                  1    wreg      enum E23148
  4603 ;; Registers used:
  4604 ;;		wreg, fsr2l, fsr2h, status,2, status,0, prodl, prodh
  4605 ;; Tracked objects:
  4606 ;;		On entry : 0/0
  4607 ;;		On exit  : 0/0
  4608 ;;		Unchanged: 0/0
  4609 ;; Data sizes:     COMRAM   BANK5   BANK6   BANK7   BANK8   BANK9  BANK10  BANK11  BANK12  BANK13  BANK14  BANK15  BANK1
      +6  BANK17  BANK18  BANK19  BANK20  BANK21  BANK22  BANK23  BANK24  BANK25  BANK26  BANK27  BANK28  BANK29  BANK30  BANK3
      +1  BANK32  BANK33  BANK34  BANK35  BANK36  BANK37  BANK38  BANK39  BANK40  BANK41  BANK42  BANK43  BANK44  BANK45  BANK4
      +6  BANK47  BANK48  BANK49  BANK50  BANK51  BANK52  BANK53  BANK54  BANK55
  4610 ;;      Params:         0       0       0       0       0       0       0       0       0       0       0       0       
      +0       0       0       0       0       0       0       0       0       0       0       0       0       0       0       
      +0       0       0       0       0       0       0       0       0       0       0       0       0       0       0       
      +0       0       0       0       0       0       0       0       0       0
  4611 ;;      Locals:         1       0       0       0       0       0       0       0       0       0       0       0       
      +0       0       0       0       0       0       0       0       0       0       0       0       0       0       0       
      +0       0       0       0       0       0       0       0       0       0       0       0       0       0       0       
      +0       0       0       0       0       0       0       0       0       0
  4612 ;;      Temps:          0       0       0       0       0       0       0       0       0       0       0       0       
      +0       0       0       0       0       0       0       0       0       0       0       0       0       0       0       
      +0       0       0       0       0       0       0       0       0       0       0       0       0       0       0       
      +0       0       0       0       0       0       0       0       0       0
  4613 ;;      Totals:         1       0       0       0       0       0       0       0       0       0       0       0       
      +0       0       0       0       0       0       0       0       0       0       0       0       0       0       0       
      +0       0       0       0       0       0       0       0       0       0       0       0       0       0       0       
      +0       0       0       0       0       0       0       0       0       0
  4614 ;;Total ram usage:        1 bytes
  4615 ;; Hardware stack levels used:    1
  4616 ;; This function calls:
  4617 ;;		Nothing
  4618 ;; This function is called by:
  4619 ;;		_Receive
  4620 ;;		_CAN1_ReceivedMessageCountGet
  4621 ;; This function uses a non-reentrant model
  4622 ;;
  4623                           
  4624                           	psect	text34
  4625  004808                     __ptext34:
  4626                           	callstack 0
  4627  004808                     _GetRxFifoStatus:
  4628                           	callstack 119
  4629                           
  4630                           ;incstack = 0
  4631                           ;GetRxFifoStatus@validChannel stored from wreg
  4632  004808  6E01               	movwf	GetRxFifoStatus@validChannel^(0+1280),c
  4633  00480A                     
  4634                           ;mcc_generated_files/can1.c: 390: static CAN_RX_FIFO_STATUS GetRxFifoStatus(uint8_t vali
      +                          dChannel);mcc_generated_files/can1.c: 391: {;mcc_generated_files/can1.c: 392:     return
      +                           FIFO[validChannel].STAL & (CAN_RX_MSG_AVAILABLE | CAN_RX_MSG_OVERFLOW);
  4635  00480A  5001               	movf	GetRxFifoStatus@validChannel^(0+1280),w,c
  4636  00480C  0D0C               	mullw	12
  4637  00480E  0E54               	movlw	84
  4638  004810  24F3               	addwf	243,w,c
  4639  004812  6ED9               	movwf	fsr2l,c
  4640  004814  0E01               	movlw	1
  4641  004816  20F4               	addwfc	prodh,w,c
  4642  004818  6EDA               	movwf	fsr2h,c
  4643  00481A  50DF               	movf	indf2,w,c
  4644  00481C  0B09               	andlw	9
  4645  00481E  0012               	return		;funcret
  4646  004820                     __end_of_GetRxFifoStatus:
  4647                           	callstack 0
  4648                           
  4649 ;; *************** function _GetRxFifoDepth *****************
  4650 ;; Defined at:
  4651 ;;		line 385 in file "mcc_generated_files/can1.c"
  4652 ;; Parameters:    Size  Location     Type
  4653 ;;  validChannel    1    wreg     unsigned char 
  4654 ;; Auto vars:     Size  Location     Type
  4655 ;;  validChannel    1    1[COMRAM] unsigned char 
  4656 ;; Return value:  Size  Location     Type
  4657 ;;                  1    wreg      unsigned char 
  4658 ;; Registers used:
  4659 ;;		wreg, fsr2l, fsr2h, status,2, status,0, prodl, prodh
  4660 ;; Tracked objects:
  4661 ;;		On entry : 0/0
  4662 ;;		On exit  : 0/0
  4663 ;;		Unchanged: 0/0
  4664 ;; Data sizes:     COMRAM   BANK5   BANK6   BANK7   BANK8   BANK9  BANK10  BANK11  BANK12  BANK13  BANK14  BANK15  BANK1
      +6  BANK17  BANK18  BANK19  BANK20  BANK21  BANK22  BANK23  BANK24  BANK25  BANK26  BANK27  BANK28  BANK29  BANK30  BANK3
      +1  BANK32  BANK33  BANK34  BANK35  BANK36  BANK37  BANK38  BANK39  BANK40  BANK41  BANK42  BANK43  BANK44  BANK45  BANK4
      +6  BANK47  BANK48  BANK49  BANK50  BANK51  BANK52  BANK53  BANK54  BANK55
  4665 ;;      Params:         0       0       0       0       0       0       0       0       0       0       0       0       
      +0       0       0       0       0       0       0       0       0       0       0       0       0       0       0       
      +0       0       0       0       0       0       0       0       0       0       0       0       0       0       0       
      +0       0       0       0       0       0       0       0       0       0
  4666 ;;      Locals:         1       0       0       0       0       0       0       0       0       0       0       0       
      +0       0       0       0       0       0       0       0       0       0       0       0       0       0       0       
      +0       0       0       0       0       0       0       0       0       0       0       0       0       0       0       
      +0       0       0       0       0       0       0       0       0       0
  4667 ;;      Temps:          1       0       0       0       0       0       0       0       0       0       0       0       
      +0       0       0       0       0       0       0       0       0       0       0       0       0       0       0       
      +0       0       0       0       0       0       0       0       0       0       0       0       0       0       0       
      +0       0       0       0       0       0       0       0       0       0
  4668 ;;      Totals:         2       0       0       0       0       0       0       0       0       0       0       0       
      +0       0       0       0       0       0       0       0       0       0       0       0       0       0       0       
      +0       0       0       0       0       0       0       0       0       0       0       0       0       0       0       
      +0       0       0       0       0       0       0       0       0       0
  4669 ;;Total ram usage:        2 bytes
  4670 ;; Hardware stack levels used:    1
  4671 ;; This function calls:
  4672 ;;		Nothing
  4673 ;; This function is called by:
  4674 ;;		_Receive
  4675 ;;		_CAN1_ReceivedMessageCountGet
  4676 ;; This function uses a non-reentrant model
  4677 ;;
  4678                           
  4679                           	psect	text35
  4680  0047B8                     __ptext35:
  4681                           	callstack 0
  4682  0047B8                     _GetRxFifoDepth:
  4683                           	callstack 119
  4684                           
  4685                           ;incstack = 0
  4686                           ;GetRxFifoDepth@validChannel stored from wreg
  4687  0047B8  6E02               	movwf	GetRxFifoDepth@validChannel^(0+1280),c
  4688  0047BA                     
  4689                           ;mcc_generated_files/can1.c: 385: static uint8_t GetRxFifoDepth(uint8_t validChannel);mc
      +                          c_generated_files/can1.c: 386: {;mcc_generated_files/can1.c: 387:     return 1U + (FIFO[
      +                          validChannel].CONT & 0x1F);
  4690  0047BA  5002               	movf	GetRxFifoDepth@validChannel^(0+1280),w,c
  4691  0047BC  0D0C               	mullw	12
  4692  0047BE  0E53               	movlw	83
  4693  0047C0  24F3               	addwf	243,w,c
  4694  0047C2  6ED9               	movwf	fsr2l,c
  4695  0047C4  0E01               	movlw	1
  4696  0047C6  20F4               	addwfc	prodh,w,c
  4697  0047C8  6EDA               	movwf	fsr2h,c
  4698  0047CA  50DF               	movf	indf2,w,c
  4699  0047CC  6E01               	movwf	??_GetRxFifoDepth^(0+1280),c
  4700  0047CE  0E1F               	movlw	31
  4701  0047D0  1601               	andwf	??_GetRxFifoDepth^(0+1280),f,c
  4702  0047D2  2801               	incf	??_GetRxFifoDepth^(0+1280),w,c
  4703  0047D4  0012               	return		;funcret
  4704  0047D6                     __end_of_GetRxFifoDepth:
  4705                           	callstack 0
  4706                           
  4707                           ;
  4708                           ; Interrupt Vector Table @ 0x8
  4709                           ;
  4710                           
  4711                           	psect	ivt0x8
  4712  000008                     __pivt0x8:
  4713                           	callstack 0
  4714  000008                     ivt0x8_base:
  4715                           	callstack 0
  4716                           
  4717                           ; high-priority vector
  4718  000008  EFB0  F021         	goto	_INTERRUPT_InterruptManager
  4719  000018                     	org	16
  4720                           
  4721                           ; low-priority vector
  4722  000018  00FF               	reset	
  4723                           
  4724                           	psect	text36
  4725  000000                     __ptext36:
  4726                           	callstack 0
  4727  000000                     
  4728                           	psect	rparam
  4729  0000                     
  4730                           	psect	idloc
  4731                           
  4732                           ;Config register IDLOC0 @ 0x200000
  4733                           ;	unspecified, using default values
  4734  200000                     	org	2097152
  4735  200000  0FFF               	dw	4095
  4736                           
  4737                           ;Config register IDLOC1 @ 0x200002
  4738                           ;	unspecified, using default values
  4739  200002                     	org	2097154
  4740  200002  0FFF               	dw	4095
  4741                           
  4742                           ;Config register IDLOC2 @ 0x200004
  4743                           ;	unspecified, using default values
  4744  200004                     	org	2097156
  4745  200004  0FFF               	dw	4095
  4746                           
  4747                           ;Config register IDLOC3 @ 0x200006
  4748                           ;	unspecified, using default values
  4749  200006                     	org	2097158
  4750  200006  0FFF               	dw	4095
  4751                           
  4752                           ;Config register IDLOC4 @ 0x200008
  4753                           ;	unspecified, using default values
  4754  200008                     	org	2097160
  4755  200008  0FFF               	dw	4095
  4756                           
  4757                           ;Config register IDLOC5 @ 0x20000A
  4758                           ;	unspecified, using default values
  4759  20000A                     	org	2097162
  4760  20000A  0FFF               	dw	4095
  4761                           
  4762                           ;Config register IDLOC6 @ 0x20000C
  4763                           ;	unspecified, using default values
  4764  20000C                     	org	2097164
  4765  20000C  0FFF               	dw	4095
  4766                           
  4767                           ;Config register IDLOC7 @ 0x20000E
  4768                           ;	unspecified, using default values
  4769  20000E                     	org	2097166
  4770  20000E  0FFF               	dw	4095
  4771                           
  4772                           ;Config register IDLOC8 @ 0x200010
  4773                           ;	unspecified, using default values
  4774  200010                     	org	2097168
  4775  200010  0FFF               	dw	4095
  4776                           
  4777                           ;Config register IDLOC9 @ 0x200012
  4778                           ;	unspecified, using default values
  4779  200012                     	org	2097170
  4780  200012  0FFF               	dw	4095
  4781                           
  4782                           ;Config register IDLOC10 @ 0x200014
  4783                           ;	unspecified, using default values
  4784  200014                     	org	2097172
  4785  200014  0FFF               	dw	4095
  4786                           
  4787                           ;Config register IDLOC11 @ 0x200016
  4788                           ;	unspecified, using default values
  4789  200016                     	org	2097174
  4790  200016  0FFF               	dw	4095
  4791                           
  4792                           ;Config register IDLOC12 @ 0x200018
  4793                           ;	unspecified, using default values
  4794  200018                     	org	2097176
  4795  200018  0FFF               	dw	4095
  4796                           
  4797                           ;Config register IDLOC13 @ 0x20001A
  4798                           ;	unspecified, using default values
  4799  20001A                     	org	2097178
  4800  20001A  0FFF               	dw	4095
  4801                           
  4802                           ;Config register IDLOC14 @ 0x20001C
  4803                           ;	unspecified, using default values
  4804  20001C                     	org	2097180
  4805  20001C  0FFF               	dw	4095
  4806                           
  4807                           ;Config register IDLOC15 @ 0x20001E
  4808                           ;	unspecified, using default values
  4809  20001E                     	org	2097182
  4810  20001E  0FFF               	dw	4095
  4811                           
  4812                           	psect	config
  4813                           
  4814                           ;Config register CONFIG1 @ 0x300000
  4815                           ;	External Oscillator Selection
  4816                           ;	FEXTOSC = HS, HS (crystal oscillator) above 8 MHz
  4817                           ;	Reset Oscillator Selection
  4818                           ;	RSTOSC = EXTOSC, EXTOSC operating per FEXTOSC bits (device manufacturing default)
  4819  300000                     	org	3145728
  4820  300000  FA                 	db	250
  4821                           
  4822                           ;Config register CONFIG2 @ 0x300001
  4823                           ;	Clock out Enable bit
  4824                           ;	CLKOUTEN = OFF, CLKOUT function is disabled
  4825                           ;	PRLOCKED One-Way Set Enable bit
  4826                           ;	PR1WAY = ON, PRLOCKED bit can be cleared and set only once
  4827                           ;	Clock Switch Enable bit
  4828                           ;	CSWEN = ON, Writing to NOSC and NDIV is allowed
  4829                           ;	JTAG Enable bit
  4830                           ;	JTAGEN = OFF, Disable JTAG Boundary Scan mode, JTAG pins revert to user functions
  4831                           ;	Fail-Safe Clock Monitor Enable bit
  4832                           ;	FCMEN = ON, Fail-Safe Clock Monitor enabled
  4833                           ;	Fail-Safe Clock Monitor -Primary XTAL Enable bit
  4834                           ;	FCMENP = ON, FSCM timer will set FSCMP bit and OSFIF interrupt on Primary XTAL failure
  4835                           ;	Fail-Safe Clock Monitor -Secondary XTAL Enable bit
  4836                           ;	FCMENS = ON, FSCM timer will set FSCMS bit and OSFIF interrupt on Secondary XTAL failu
      +                          re
  4837  300001                     	org	3145729
  4838  300001  EF                 	db	239
  4839                           
  4840                           ;Config register CONFIG3 @ 0x300002
  4841                           ;	MCLR Enable bit
  4842                           ;	MCLRE = EXTMCLR, If LVP = 0, MCLR pin is MCLR; If LVP = 1, RE3 pin function is MCLR
  4843                           ;	Power-up timer selection bits
  4844                           ;	PWRTS = PWRT_OFF, PWRT is disabled
  4845                           ;	Multi-vector enable bit
  4846                           ;	MVECEN = OFF, Interrupt contoller does not use vector table to prioritze interrupts
  4847                           ;	IVTLOCK bit One-way set enable bit
  4848                           ;	IVT1WAY = ON, IVTLOCKED bit can be cleared and set only once
  4849                           ;	Low Power BOR Enable bit
  4850                           ;	LPBOREN = OFF, Low-Power BOR disabled
  4851                           ;	Brown-out Reset Enable bits
  4852                           ;	BOREN = SBORDIS, Brown-out Reset enabled , SBOREN bit is ignored
  4853  300002                     	org	3145730
  4854  300002  F7                 	db	247
  4855                           
  4856                           ;Config register CONFIG4 @ 0x300003
  4857                           ;	Brown-out Reset Voltage Selection bits
  4858                           ;	BORV = VBOR_1P9, Brown-out Reset Voltage (VBOR) set to 1.9V
  4859                           ;	ZCD Disable bit
  4860                           ;	ZCD = OFF, ZCD module is disabled. ZCD can be enabled by setting the ZCDSEN bit of ZCD
      +                          CON
  4861                           ;	PPSLOCK bit One-Way Set Enable bit
  4862                           ;	PPS1WAY = ON, PPSLOCKED bit can be cleared and set only once; PPS registers remain loc
      +                          ked after one clear/set cycle
  4863                           ;	Stack Full/Underflow Reset Enable bit
  4864                           ;	STVREN = ON, Stack full/underflow will cause Reset
  4865                           ;	Low Voltage Programming Enable bit
  4866                           ;	LVP = ON, Low voltage programming enabled. MCLR/VPP pin function is MCLR. MCLRE config
      +                          uration bit is ignored
  4867                           ;	Extended Instruction Set Enable bit
  4868                           ;	XINST = OFF, Extended Instruction Set and Indexed Addressing Mode disabled
  4869  300003                     	org	3145731
  4870  300003  FF                 	db	255
  4871                           
  4872                           ;Config register CONFIG5 @ 0x300004
  4873                           ;	WDT Period selection bits
  4874                           ;	WDTCPS = WDTCPS_31, Divider ratio 1:65536; software control of WDTPS
  4875                           ;	WDT operating mode
  4876                           ;	WDTE = OFF, WDT Disabled; SWDTEN is ignored
  4877  300004                     	org	3145732
  4878  300004  9F                 	db	159
  4879                           
  4880                           ;Config register CONFIG6 @ 0x300005
  4881                           ;	WDT Window Select bits
  4882                           ;	WDTCWS = WDTCWS_7, window always open (100%); software control; keyed access not requi
      +                          red
  4883                           ;	WDT input clock selector
  4884                           ;	WDTCCS = SC, Software Control
  4885  300005                     	org	3145733
  4886  300005  FF                 	db	255
  4887                           
  4888                           ;Config register CONFIG7 @ 0x300006
  4889                           ;	Boot Block Size selection bits
  4890                           ;	BBSIZE = BBSIZE_512, Boot Block size is 512 words
  4891                           ;	Boot Block enable bit
  4892                           ;	BBEN = OFF, Boot block disabled
  4893                           ;	Storage Area Flash enable bit
  4894                           ;	SAFEN = OFF, SAF disabled
  4895  300006                     	org	3145734
  4896  300006  FF                 	db	255
  4897                           
  4898                           ;Config register CONFIG8 @ 0x300007
  4899                           ;	Boot Block Write Protection bit
  4900                           ;	WRTB = OFF, Boot Block not Write protected
  4901                           ;	Configuration Register Write Protection bit
  4902                           ;	WRTC = OFF, Configuration registers not Write protected
  4903                           ;	Data EEPROM Write Protection bit
  4904                           ;	WRTD = OFF, Data EEPROM not Write protected
  4905                           ;	SAF Write protection bit
  4906                           ;	WRTSAF = OFF, SAF not Write Protected
  4907                           ;	Application Block write protection bit
  4908                           ;	WRTAPP = OFF, Application Block not write protected
  4909  300007                     	org	3145735
  4910  300007  FF                 	db	255
  4911                           
  4912                           ;Config register CONFIG9 @ 0x300008
  4913                           ;	CRC on boot output pin selection
  4914                           ;	BOOTPINSEL = RC5, CRC on boot output pin is RC5
  4915                           ;	CRC on boot output pin enable bit
  4916                           ;	BPEN = OFF, CRC on boot output pin disabled
  4917                           ;	CRC on boot output pin open drain bit
  4918                           ;	ODCON = OFF, Pin drives both high-going and low-going signals
  4919  300008                     	org	3145736
  4920  300008  FF                 	db	255
  4921                           
  4922                           ;Config register CONFIG10 @ 0x300009
  4923                           ;	PFM and Data EEPROM Code Protection bit
  4924                           ;	CP = OFF, PFM and Data EEPROM code protection disabled
  4925  300009                     	org	3145737
  4926  300009  FF                 	db	255
  4927                           
  4928                           ;Config register CONFIG11 @ 0x30000A
  4929                           ;	CRC on boot scan enable for boot area
  4930                           ;	BOOTSCEN = OFF, CRC on boot will not include the boot area of program memory in its ca
      +                          lculation
  4931                           ;	CRC on boot Continue on Error for boot areas bit
  4932                           ;	BOOTCOE = HALT, CRC on boot will stop device if error is detected in boot areas
  4933                           ;	CRC on boot application code scan enable
  4934                           ;	APPSCEN = OFF, CRC on boot will not include the application area of program memory in 
      +                          its calculation
  4935                           ;	CRC on boot SAF area scan enable
  4936                           ;	SAFSCEN = OFF, CRC on boot will not include the SAF area of program memory in its calc
      +                          ulation
  4937                           ;	CRC on boot Data EEPROM scan enable
  4938                           ;	DATASCEN = OFF, CRC on boot will not include data EEPROM in its calculation
  4939                           ;	CRC on boot Config fuses scan enable
  4940                           ;	CFGSCEN = OFF, CRC on boot will not include the configuration fuses in its calculation
  4941                           ;	CRC on boot Continue on Error for non-boot areas bit
  4942                           ;	COE = HALT, CRC on boot will stop device if error is detected in non-boot areas
  4943                           ;	Boot on CRC Enable bit
  4944                           ;	BOOTPOR = OFF, CRC on boot will not run
  4945  30000A                     	org	3145738
  4946  30000A  FF                 	db	255
  4947                           
  4948                           ;Config register CONFIG12 @ 0x30000B
  4949                           ;	Boot Sector Polynomial for CRC on boot bits 31-24
  4950                           ;	BCRCPOLT = hFF, Bits 31:24 of BCRCPOL are 0xFF
  4951  30000B                     	org	3145739
  4952  30000B  FF                 	db	255
  4953                           
  4954                           ;Config register CONFIG13 @ 0x30000C
  4955                           ;	Boot Sector Polynomial for CRC on boot bits 23-16
  4956                           ;	BCRCPOLU = hFF, Bits 23:16 of BCRCPOL are 0xFF
  4957  30000C                     	org	3145740
  4958  30000C  FF                 	db	255
  4959                           
  4960                           ;Config register CONFIG14 @ 0x30000D
  4961                           ;	Boot Sector Polynomial for CRC on boot bits 15-8
  4962                           ;	BCRCPOLH = hFF, Bits 15:8 of BCRCPOL are 0xFF
  4963  30000D                     	org	3145741
  4964  30000D  FF                 	db	255
  4965                           
  4966                           ;Config register CONFIG15 @ 0x30000E
  4967                           ;	Boot Sector Polynomial for CRC on boot bits 7-0
  4968                           ;	BCRCPOLL = hFF, Bits 7:0 of BCRCPOL are 0xFF
  4969  30000E                     	org	3145742
  4970  30000E  FF                 	db	255
  4971                           
  4972                           ;Config register CONFIG16 @ 0x30000F
  4973                           ;	Boot Sector Seed for CRC on boot bits 31-24
  4974                           ;	BCRCSEEDT = hFF, Bits 31:24 of BCRCSEED are 0xFF
  4975  30000F                     	org	3145743
  4976  30000F  FF                 	db	255
  4977                           
  4978                           ;Config register CONFIG17 @ 0x300010
  4979                           ;	Boot Sector Seed for CRC on boot bits 23-16
  4980                           ;	BCRCSEEDU = hFF, Bits 23:16 of BCRCSEED are 0xFF
  4981  300010                     	org	3145744
  4982  300010  FF                 	db	255
  4983                           
  4984                           ;Config register CONFIG18 @ 0x300011
  4985                           ;	Boot Sector Seed for CRC on boot bits 15-8
  4986                           ;	BCRCSEEDH = hFF, Bits 15:8 of BCRCSEED are 0xFF
  4987  300011                     	org	3145745
  4988  300011  FF                 	db	255
  4989                           
  4990                           ;Config register CONFIG19 @ 0x300012
  4991                           ;	Boot Sector Seed for CRC on boot bits 7-0
  4992                           ;	BCRCSEEDL = hFF, Bits 7:0 of BCRCSEED are 0xFF
  4993  300012                     	org	3145746
  4994  300012  FF                 	db	255
  4995                           
  4996                           ;Config register CONFIG20 @ 0x300013
  4997                           ;	unspecified, using default values
  4998                           ;	Boot Sector Expected Result for CRC on boot bits 31-24
  4999                           ;	BCRCEREST = 0xFF, unprogrammed default
  5000  300013                     	org	3145747
  5001  300013  FF                 	db	255
  5002                           
  5003                           ;Config register CONFIG21 @ 0x300014
  5004                           ;	unspecified, using default values
  5005                           ;	Boot Sector Expected Result for CRC on boot bits 23-16
  5006                           ;	BCRCERESU = 0xFF, unprogrammed default
  5007  300014                     	org	3145748
  5008  300014  FF                 	db	255
  5009                           
  5010                           ;Config register CONFIG22 @ 0x300015
  5011                           ;	unspecified, using default values
  5012                           ;	Boot Sector Expected Result for CRC on boot bits 15-8
  5013                           ;	BCRCERESH = 0xFF, unprogrammed default
  5014  300015                     	org	3145749
  5015  300015  FF                 	db	255
  5016                           
  5017                           ;Config register CONFIG23 @ 0x300016
  5018                           ;	unspecified, using default values
  5019                           ;	Boot Sector Expected Result for CRC on boot bits 7-0
  5020                           ;	BCRCERESL = 0xFF, unprogrammed default
  5021  300016                     	org	3145750
  5022  300016  FF                 	db	255
  5023                           
  5024                           ;Config register CONFIG24 @ 0x300017
  5025                           ;	Non-Boot Sector Polynomial for CRC on boot bits 31-24
  5026                           ;	CRCPOLT = hFF, Bits 31:24 of CRCPOL are 0xFF
  5027  300017                     	org	3145751
  5028  300017  FF                 	db	255
  5029                           
  5030                           ;Config register CONFIG25 @ 0x300018
  5031                           ;	Non-Boot Sector Polynomial for CRC on boot bits 23-16
  5032                           ;	CRCPOLU = hFF, Bits 23:16 of CRCPOL are 0xFF
  5033  300018                     	org	3145752
  5034  300018  FF                 	db	255
  5035                           
  5036                           ;Config register CONFIG26 @ 0x300019
  5037                           ;	Non-Boot Sector Polynomial for CRC on boot bits 15-8
  5038                           ;	CRCPOLH = hFF, Bits 15:8 of CRCPOL are 0xFF
  5039  300019                     	org	3145753
  5040  300019  FF                 	db	255
  5041                           
  5042                           ;Config register CONFIG27 @ 0x30001A
  5043                           ;	Non-Boot Sector Polynomial for CRC on boot bits 7-0
  5044                           ;	CRCPOLL = hFF, Bits 7:0 of CRCPOL are 0xFF
  5045  30001A                     	org	3145754
  5046  30001A  FF                 	db	255
  5047                           
  5048                           ;Config register CONFIG28 @ 0x30001B
  5049                           ;	Non-Boot Sector Seed for CRC on boot bits 31-24
  5050                           ;	CRCSEEDT = hFF, Bits 31:24 of CRCSEED are 0xFF
  5051  30001B                     	org	3145755
  5052  30001B  FF                 	db	255
  5053                           
  5054                           ;Config register CONFIG29 @ 0x30001C
  5055                           ;	Non-Boot Sector Seed for CRC on boot bits 23-16
  5056                           ;	CRCSEEDU = hFF, Bits 23:16 of CRCSEED are 0xFF
  5057  30001C                     	org	3145756
  5058  30001C  FF                 	db	255
  5059                           
  5060                           ;Config register CONFIG30 @ 0x30001D
  5061                           ;	Non-Boot Sector Seed for CRC on boot bits 15-8
  5062                           ;	CRCSEEDH = hFF, Bits 15:8 of CRCSEED are 0xFF
  5063  30001D                     	org	3145757
  5064  30001D  FF                 	db	255
  5065                           
  5066                           ;Config register CONFIG31 @ 0x30001E
  5067                           ;	Non-Boot Sector Seed for CRC on boot bits 7-0
  5068                           ;	CRCSEEDL = hFF, Bits 7:0 of CRCSEED are 0xFF
  5069  30001E                     	org	3145758
  5070  30001E  FF                 	db	255
  5071                           
  5072                           ;Config register CONFIG32 @ 0x30001F
  5073                           ;	unspecified, using default values
  5074                           ;	Non-Boot Sector Expected Result for CRC on boot bits 31-24
  5075                           ;	CRCEREST = 0xFF, unprogrammed default
  5076  30001F                     	org	3145759
  5077  30001F  FF                 	db	255
  5078                           
  5079                           ;Config register CONFIG33 @ 0x300020
  5080                           ;	unspecified, using default values
  5081                           ;	Non-Boot Sector Expected Result for CRC on boot bits 23-16
  5082                           ;	CRCERESU = 0xFF, unprogrammed default
  5083  300020                     	org	3145760
  5084  300020  FF                 	db	255
  5085                           
  5086                           ;Config register CONFIG34 @ 0x300021
  5087                           ;	unspecified, using default values
  5088                           ;	Non-Boot Sector Expected Result for CRC on boot bits 15-8
  5089                           ;	CRCERESH = 0xFF, unprogrammed default
  5090  300021                     	org	3145761
  5091  300021  FF                 	db	255
  5092                           
  5093                           ;Config register CONFIG35 @ 0x300022
  5094                           ;	unspecified, using default values
  5095                           ;	Non-Boot Sector Expected Result for CRC on boot bits 7-0
  5096                           ;	CRCERESL = 0xFF, unprogrammed default
  5097  300022                     	org	3145762
  5098  300022  FF                 	db	255
  5099                           
  5100                           ; Padding undefined space
  5101  300023                     	org	3145763
  5102  300023  FF                 	db	255
  5103                           tosu	equ	0x4FF
  5104                           tosh	equ	0x4FE
  5105                           tosl	equ	0x4FD
  5106                           stkptr	equ	0x4FC
  5107                           pclatu	equ	0x4FB
  5108                           pclath	equ	0x4FA
  5109                           pcl	equ	0x4F9
  5110                           tblptru	equ	0x4F8
  5111                           tblptrh	equ	0x4F7
  5112                           tblptrl	equ	0x4F6
  5113                           tablat	equ	0x4F5
  5114                           prodh	equ	0x4F4
  5115                           prodl	equ	0x4F3
  5116                           indf0	equ	0x4EF
  5117                           postinc0	equ	0x4EE
  5118                           postdec0	equ	0x4ED
  5119                           preinc0	equ	0x4EC
  5120                           plusw0	equ	0x4EB
  5121                           fsr0h	equ	0x4EA
  5122                           fsr0l	equ	0x4E9
  5123                           wreg	equ	0x4E8
  5124                           indf1	equ	0x4E7
  5125                           postinc1	equ	0x4E6
  5126                           postdec1	equ	0x4E5
  5127                           preinc1	equ	0x4E4
  5128                           plusw1	equ	0x4E3
  5129                           fsr1h	equ	0x4E2
  5130                           fsr1l	equ	0x4E1
  5131                           bsr	equ	0x4E0
  5132                           indf2	equ	0x4DF
  5133                           postinc2	equ	0x4DE
  5134                           postdec2	equ	0x4DD
  5135                           preinc2	equ	0x4DC
  5136                           plusw2	equ	0x4DB
  5137                           fsr2h	equ	0x4DA
  5138                           fsr2l	equ	0x4D9
  5139                           status	equ	0x4D8

Data Sizes:
    Strings     0
    Constant    18
    Data        10
    BSS         11
    Persistent  3
    Stack       0

Auto Spaces:
    Space          Size  Autos    Used
    COMRAM           95     69      91
    BANK5           160      3       5
    BANK6           256      0       0
    BANK7           256      0       0
    BANK8           256      0       0
    BANK9           256      0       0
    BANK10          256      0       0
    BANK11          256      0       0
    BANK12          256      0       0
    BANK13          256      0       0
    BANK14          256      0       0
    BANK15          256      0       0
    BANK16          256      0       0
    BANK17          256      0       0
    BANK18          256      0       0
    BANK19          256      0       0
    BANK20          256      0       0
    BANK21          256      0       0
    BANK22          256      0       0
    BANK23          256      0       0
    BANK24          256      0       0
    BANK25          256      0       0
    BANK26          256      0       0
    BANK27          256      0       0
    BANK28          256      0       0
    BANK29          256      0       0
    BANK30          256      0       0
    BANK31          256      0       0
    BANK32          256      0       0
    BANK33          256      0       0
    BANK34          256      0       0
    BANK35          256      0       0
    BANK36          256      0       0
    BANK37          256      0       0
    BANK38          256      0       0
    BANK39          256      0       0
    BANK40          256      0       0
    BANK41          256      0       0
    BANK42          256      0       0
    BANK43          256      0       0
    BANK44          256      0       0
    BANK45          256      0       0
    BANK46          256      0       0
    BANK47          256      0       0
    BANK48          256      0       0
    BANK49          256      0       0
    BANK50          256      0       0
    BANK51          256      0       0
    BANK52          256      0       0
    BANK53          256      0       0
    BANK54          256      0       0
    BANK55          256      0       0

Pointer List with Targets:

    memcpy@d1	PTR void  size(2) Largest target is 14335
		 -> RAM(DATA[14335]), rxMsgData(COMRAM[8]), 

    memcpy@d	PTR unsigned char  size(2) Largest target is 14335
		 -> RAM(DATA[14335]), rxMsgData(COMRAM[8]), 

    memcpy@s1	PTR const void  size(2) Largest target is 14335
		 -> TU16A_DefaultInterruptHandler@Transmit_Data(COMRAM[8]), RAM(DATA[14335]), rxMsgData(COMRAM[8]), DefaultFIFO1NotEmptyHandler@data_Out(COMRAM[8]), 

    memcpy@s	PTR const unsigned char  size(2) Largest target is 14335
		 -> TU16A_DefaultInterruptHandler@Transmit_Data(COMRAM[8]), RAM(DATA[14335]), rxMsgData(COMRAM[8]), DefaultFIFO1NotEmptyHandler@data_Out(COMRAM[8]), 

    Transmission.data	PTR unsigned char  size(2) Largest target is 8
		 -> TU16A_DefaultInterruptHandler@Transmit_Data(COMRAM[8]), rxMsgData(COMRAM[8]), DefaultFIFO1NotEmptyHandler@data_Out(COMRAM[8]), 

    TU16A_SetInterruptHandler@InterruptHandler	PTR FTN()void  size(3) Largest target is 1
		 -> TU16A_DefaultInterruptHandler(), 

    TU16A_InterruptHandler	PTR FTN()void  size(3) Largest target is 1
		 -> Absolute function(), TU16A_DefaultInterruptHandler(), 

    CAN1_SetFIFO1NotEmptyHandler@handler	PTR FTN()void  size(3) Largest target is 1
		 -> DefaultFIFO1NotEmptyHandler(), 

    CAN1_FIFO1NotEmptyHandler	PTR FTN()void  size(3) Largest target is 1
		 -> Absolute function(), DefaultFIFO1NotEmptyHandler(), 

    CAN1_Transmit@txFifoObj	PTR unsigned char  size(2) Largest target is 14335
		 -> RAM(DATA[14335]), 

    CAN1_Transmit@txCanMsg	PTR struct . size(2) Largest target is 8
		 -> TU16A_DefaultInterruptHandler@Transmission(COMRAM[7]), DefaultFIFO1NotEmptyHandler@Return_Message(COMRAM[7]), 

    ValidateTransmission@txCanMsg.data	PTR unsigned char  size(2) Largest target is 8
		 -> TU16A_DefaultInterruptHandler@Transmit_Data(COMRAM[8]), rxMsgData(COMRAM[8]), DefaultFIFO1NotEmptyHandler@data_Out(COMRAM[8]), 

    ValidateTransmission@txCanMsg	PTR struct . size(2) Largest target is 8
		 -> TU16A_DefaultInterruptHandler@Transmission(COMRAM[7]), DefaultFIFO1NotEmptyHandler@Return_Message(COMRAM[7]), 

    WriteMessageToFifo@txFifoObj	PTR unsigned char  size(2) Largest target is 14335
		 -> RAM(DATA[14335]), 

    WriteMessageToFifo@txCanMsg.data	PTR unsigned char  size(2) Largest target is 8
		 -> TU16A_DefaultInterruptHandler@Transmit_Data(COMRAM[8]), rxMsgData(COMRAM[8]), DefaultFIFO1NotEmptyHandler@data_Out(COMRAM[8]), 

    WriteMessageToFifo@txCanMsg	PTR struct . size(2) Largest target is 8
		 -> TU16A_DefaultInterruptHandler@Transmission(COMRAM[7]), DefaultFIFO1NotEmptyHandler@Return_Message(COMRAM[7]), 

    CAN1_ReceiveFrom@rxCanMsg	PTR struct . size(2) Largest target is 8
		 -> DefaultFIFO1NotEmptyHandler@Currently_Processing(COMRAM[7]), 

    Receive@rxCanMsg	PTR struct . size(2) Largest target is 8
		 -> DefaultFIFO1NotEmptyHandler@Currently_Processing(COMRAM[7]), 

    Receive@rxFifoObj	PTR unsigned char  size(2) Largest target is 14335
		 -> RAM(DATA[14335]), 

    sp__memcpy	PTR void  size(2) Largest target is 14335
		 -> RAM(DATA[14335]), rxMsgData(COMRAM[8]), 

    ReadMessageFromFifo@rxCanMsg.data	PTR unsigned char  size(2) Largest target is 8
		 -> TU16A_DefaultInterruptHandler@Transmit_Data(COMRAM[8]), rxMsgData(COMRAM[8]), DefaultFIFO1NotEmptyHandler@data_Out(COMRAM[8]), 

    ReadMessageFromFifo@rxCanMsg	PTR struct . size(2) Largest target is 8
		 -> DefaultFIFO1NotEmptyHandler@Currently_Processing(COMRAM[7]), 

    ReadMessageFromFifo@rxFifoObj	PTR unsigned char  size(2) Largest target is 14335
		 -> RAM(DATA[14335]), 

    Return_Message.data	PTR unsigned char  size(2) Largest target is 8
		 -> TU16A_DefaultInterruptHandler@Transmit_Data(COMRAM[8]), rxMsgData(COMRAM[8]), DefaultFIFO1NotEmptyHandler@data_Out(COMRAM[8]), 

    S90$data	PTR unsigned char  size(2) Largest target is 8
		 -> TU16A_DefaultInterruptHandler@Transmit_Data(COMRAM[8]), rxMsgData(COMRAM[8]), DefaultFIFO1NotEmptyHandler@data_Out(COMRAM[8]), 

    Currently_Processing.data	PTR unsigned char  size(2) Largest target is 8
		 -> TU16A_DefaultInterruptHandler@Transmit_Data(COMRAM[8]), rxMsgData(COMRAM[8]), DefaultFIFO1NotEmptyHandler@data_Out(COMRAM[8]), 

    FIFO	const PTR volatile struct CAN_FIFOREG size(2) Largest target is 1
		 -> C1TXQCONL(SFR_1[1]), 


Critical Paths under _main in COMRAM

    None.

Critical Paths under _INTERRUPT_InterruptManager in COMRAM

    _TU16A_ISR->_TU16A_DefaultInterruptHandler
    _TU16A_DefaultInterruptHandler->_CAN1_Transmit
    _CAN1_RXI_ISR->_DefaultFIFO1NotEmptyHandler
    _DefaultFIFO1NotEmptyHandler->_CAN1_ReceiveFrom
    _CAN1_TransmitFIFOStatusGet->_isTxChannel
    _CAN1_Transmit->_WriteMessageToFifo
    _WriteMessageToFifo->_memcpy
    _ValidateTransmission->_GetTxFifoStatus
    _CAN1_ReceivedMessageCountGet->_GetRxFifoDepth
    _CAN1_ReceiveFrom->_Receive
    _Receive->_ReadMessageFromFifo
    _ReadMessageFromFifo->_memcpy

Critical Paths under _main in BANK5

    _TU16A_Initialize->_TU16A_SetInterruptHandler
    _CAN1_Initialize->_CAN1_OperationModeSet
    _CAN1_RX_FIFO_Configuration->_CAN1_SetFIFO1NotEmptyHandler

Critical Paths under _INTERRUPT_InterruptManager in BANK5

    None.

Critical Paths under _main in BANK6

    None.

Critical Paths under _INTERRUPT_InterruptManager in BANK6

    None.

Critical Paths under _main in BANK7

    None.

Critical Paths under _INTERRUPT_InterruptManager in BANK7

    None.

Critical Paths under _main in BANK8

    None.

Critical Paths under _INTERRUPT_InterruptManager in BANK8

    None.

Critical Paths under _main in BANK9

    None.

Critical Paths under _INTERRUPT_InterruptManager in BANK9

    None.

Critical Paths under _main in BANK10

    None.

Critical Paths under _INTERRUPT_InterruptManager in BANK10

    None.

Critical Paths under _main in BANK11

    None.

Critical Paths under _INTERRUPT_InterruptManager in BANK11

    None.

Critical Paths under _main in BANK12

    None.

Critical Paths under _INTERRUPT_InterruptManager in BANK12

    None.

Critical Paths under _main in BANK13

    None.

Critical Paths under _INTERRUPT_InterruptManager in BANK13

    None.

Critical Paths under _main in BANK14

    None.

Critical Paths under _INTERRUPT_InterruptManager in BANK14

    None.

Critical Paths under _main in BANK15

    None.

Critical Paths under _INTERRUPT_InterruptManager in BANK15

    None.

Critical Paths under _main in BANK16

    None.

Critical Paths under _INTERRUPT_InterruptManager in BANK16

    None.

Critical Paths under _main in BANK17

    None.

Critical Paths under _INTERRUPT_InterruptManager in BANK17

    None.

Critical Paths under _main in BANK18

    None.

Critical Paths under _INTERRUPT_InterruptManager in BANK18

    None.

Critical Paths under _main in BANK19

    None.

Critical Paths under _INTERRUPT_InterruptManager in BANK19

    None.

Critical Paths under _main in BANK20

    None.

Critical Paths under _INTERRUPT_InterruptManager in BANK20

    None.

Critical Paths under _main in BANK21

    None.

Critical Paths under _INTERRUPT_InterruptManager in BANK21

    None.

Critical Paths under _main in BANK22

    None.

Critical Paths under _INTERRUPT_InterruptManager in BANK22

    None.

Critical Paths under _main in BANK23

    None.

Critical Paths under _INTERRUPT_InterruptManager in BANK23

    None.

Critical Paths under _main in BANK24

    None.

Critical Paths under _INTERRUPT_InterruptManager in BANK24

    None.

Critical Paths under _main in BANK25

    None.

Critical Paths under _INTERRUPT_InterruptManager in BANK25

    None.

Critical Paths under _main in BANK26

    None.

Critical Paths under _INTERRUPT_InterruptManager in BANK26

    None.

Critical Paths under _main in BANK27

    None.

Critical Paths under _INTERRUPT_InterruptManager in BANK27

    None.

Critical Paths under _main in BANK28

    None.

Critical Paths under _INTERRUPT_InterruptManager in BANK28

    None.

Critical Paths under _main in BANK29

    None.

Critical Paths under _INTERRUPT_InterruptManager in BANK29

    None.

Critical Paths under _main in BANK30

    None.

Critical Paths under _INTERRUPT_InterruptManager in BANK30

    None.

Critical Paths under _main in BANK31

    None.

Critical Paths under _INTERRUPT_InterruptManager in BANK31

    None.

Critical Paths under _main in BANK32

    None.

Critical Paths under _INTERRUPT_InterruptManager in BANK32

    None.

Critical Paths under _main in BANK33

    None.

Critical Paths under _INTERRUPT_InterruptManager in BANK33

    None.

Critical Paths under _main in BANK34

    None.

Critical Paths under _INTERRUPT_InterruptManager in BANK34

    None.

Critical Paths under _main in BANK35

    None.

Critical Paths under _INTERRUPT_InterruptManager in BANK35

    None.

Critical Paths under _main in BANK36

    None.

Critical Paths under _INTERRUPT_InterruptManager in BANK36

    None.

Critical Paths under _main in BANK37

    None.

Critical Paths under _INTERRUPT_InterruptManager in BANK37

    None.

Critical Paths under _main in BANK38

    None.

Critical Paths under _INTERRUPT_InterruptManager in BANK38

    None.

Critical Paths under _main in BANK39

    None.

Critical Paths under _INTERRUPT_InterruptManager in BANK39

    None.

Critical Paths under _main in BANK40

    None.

Critical Paths under _INTERRUPT_InterruptManager in BANK40

    None.

Critical Paths under _main in BANK41

    None.

Critical Paths under _INTERRUPT_InterruptManager in BANK41

    None.

Critical Paths under _main in BANK42

    None.

Critical Paths under _INTERRUPT_InterruptManager in BANK42

    None.

Critical Paths under _main in BANK43

    None.

Critical Paths under _INTERRUPT_InterruptManager in BANK43

    None.

Critical Paths under _main in BANK44

    None.

Critical Paths under _INTERRUPT_InterruptManager in BANK44

    None.

Critical Paths under _main in BANK45

    None.

Critical Paths under _INTERRUPT_InterruptManager in BANK45

    None.

Critical Paths under _main in BANK46

    None.

Critical Paths under _INTERRUPT_InterruptManager in BANK46

    None.

Critical Paths under _main in BANK47

    None.

Critical Paths under _INTERRUPT_InterruptManager in BANK47

    None.

Critical Paths under _main in BANK48

    None.

Critical Paths under _INTERRUPT_InterruptManager in BANK48

    None.

Critical Paths under _main in BANK49

    None.

Critical Paths under _INTERRUPT_InterruptManager in BANK49

    None.

Critical Paths under _main in BANK50

    None.

Critical Paths under _INTERRUPT_InterruptManager in BANK50

    None.

Critical Paths under _main in BANK51

    None.

Critical Paths under _INTERRUPT_InterruptManager in BANK51

    None.

Critical Paths under _main in BANK52

    None.

Critical Paths under _INTERRUPT_InterruptManager in BANK52

    None.

Critical Paths under _main in BANK53

    None.

Critical Paths under _INTERRUPT_InterruptManager in BANK53

    None.

Critical Paths under _main in BANK54

    None.

Critical Paths under _INTERRUPT_InterruptManager in BANK54

    None.

Critical Paths under _main in BANK55

    None.

Critical Paths under _INTERRUPT_InterruptManager in BANK55

    None.

Call Graph Tables:

 ---------------------------------------------------------------------------------
 (Depth) Function   	        Calls       Base Space   Used Autos Params    Refs
 ---------------------------------------------------------------------------------
 (0) _main                                                 0     0      0     400
                  _SYSTEM_Initialize
 ---------------------------------------------------------------------------------
 (1) _SYSTEM_Initialize                                    0     0      0     400
                    _CAN1_Initialize
               _INTERRUPT_Initialize
              _OSCILLATOR_Initialize
             _PIN_MANAGER_Initialize
                     _PMD_Initialize
                   _TU16A_Initialize
 ---------------------------------------------------------------------------------
 (2) _TU16A_Initialize                                     0     0      0      98
          _TU16A_SetInterruptHandler
 ---------------------------------------------------------------------------------
 (3) _TU16A_SetInterruptHandler                            3     0      3      98
                                              0 BANK5      3     0      3
 ---------------------------------------------------------------------------------
 (2) _PMD_Initialize                                       0     0      0       0
 ---------------------------------------------------------------------------------
 (2) _PIN_MANAGER_Initialize                               0     0      0       0
 ---------------------------------------------------------------------------------
 (2) _OSCILLATOR_Initialize                                0     0      0       0
 ---------------------------------------------------------------------------------
 (2) _INTERRUPT_Initialize                                 0     0      0       0
 ---------------------------------------------------------------------------------
 (2) _CAN1_Initialize                                      0     0      0     302
          _CAN1_BitRateConfiguration
              _CAN1_OperationModeSet
         _CAN1_RX_FIFO_Configuration
_CAN1_RX_FIFO_FilterMaskConfiguratio
             _CAN1_RX_FIFO_ResetInfo
         _CAN1_TX_FIFO_Configuration
 ---------------------------------------------------------------------------------
 (3) _CAN1_TX_FIFO_Configuration                           0     0      0       0
 ---------------------------------------------------------------------------------
 (3) _CAN1_RX_FIFO_ResetInfo                               1     1      0      68
                                              0 BANK5      1     1      0
 ---------------------------------------------------------------------------------
 (3) _CAN1_RX_FIFO_FilterMaskConfiguration                 0     0      0       0
 ---------------------------------------------------------------------------------
 (3) _CAN1_RX_FIFO_Configuration                           0     0      0      98
       _CAN1_SetFIFO1NotEmptyHandler
 ---------------------------------------------------------------------------------
 (4) _CAN1_SetFIFO1NotEmptyHandler                         3     0      3      98
                                              0 BANK5      3     0      3
 ---------------------------------------------------------------------------------
 (3) _CAN1_OperationModeSet                                3     3      0     136
                                              0 BANK5      3     3      0
              _CAN1_OperationModeGet
 ---------------------------------------------------------------------------------
 (4) _CAN1_OperationModeGet                                0     0      0       0
 ---------------------------------------------------------------------------------
 (3) _CAN1_BitRateConfiguration                            0     0      0       0
 ---------------------------------------------------------------------------------
 Estimated maximum stack depth 4
 ---------------------------------------------------------------------------------
 (Depth) Function   	        Calls       Base Space   Used Autos Params    Refs
 ---------------------------------------------------------------------------------
 (5) _INTERRUPT_InterruptManager                           4     4      0    8707
                                             65 COMRAM     4     4      0
                       _CAN1_RXI_ISR
                          _TU16A_ISR
 ---------------------------------------------------------------------------------
 (6) _TU16A_ISR                                            0     0      0    2430
                   Absolute function *
      _TU16A_DefaultInterruptHandler *
 ---------------------------------------------------------------------------------
 (7) _TU16A_DefaultInterruptHandler                       16    16      0    2430
                                             29 COMRAM    16    16      0
                      _CAN1_Transmit
         _CAN1_TransmitFIFOStatusGet
 ---------------------------------------------------------------------------------
 (6) _CAN1_RXI_ISR                                         0     0      0    6277
                   Absolute function *
        _DefaultFIFO1NotEmptyHandler *
 ---------------------------------------------------------------------------------
 (7) _DefaultFIFO1NotEmptyHandler                         26    26      0    6277
                                             39 COMRAM    26    26      0
                   _CAN1_ReceiveFrom
       _CAN1_ReceivedMessageCountGet
                      _CAN1_Transmit
         _CAN1_TransmitFIFOStatusGet
 ---------------------------------------------------------------------------------
 (8) _CAN1_TransmitFIFOStatusGet                           2     2      0     151
                                              2 COMRAM     2     2      0
                    _GetTxFifoStatus
                        _isTxChannel
 ---------------------------------------------------------------------------------
 (8) _CAN1_Transmit                                        6     4      2    2079
                                             23 COMRAM     6     4      2
               _ValidateTransmission
                 _WriteMessageToFifo
                        _isTxChannel
 ---------------------------------------------------------------------------------
 (9) _isTxChannel                                          2     2      0      68
                                              0 COMRAM     2     2      0
 ---------------------------------------------------------------------------------
 (9) _WriteMessageToFifo                                  12     8      4    1356
                                             11 COMRAM    12     8      4
                             _memcpy
 ---------------------------------------------------------------------------------
 (9) _ValidateTransmission                                11     9      2     296
                                              1 COMRAM    11     9      2
                    _GetTxFifoStatus
            i2_CAN1_OperationModeGet
 ---------------------------------------------------------------------------------
 (10) i2_CAN1_OperationModeGet                             0     0      0       0
 ---------------------------------------------------------------------------------
 (9) _GetTxFifoStatus                                      1     1      0      15
                                              0 COMRAM     1     1      0
 ---------------------------------------------------------------------------------
 (8) _CAN1_ReceivedMessageCountGet                         8     8      0     541
                                              2 COMRAM     8     8      0
                     _GetRxFifoDepth
                    _GetRxFifoStatus
 ---------------------------------------------------------------------------------
 (8) _CAN1_ReceiveFrom                                     6     4      2    2184
                                             33 COMRAM     6     4      2
                            _Receive
 ---------------------------------------------------------------------------------
 (9) _Receive                                             10     7      3    1928
                                             23 COMRAM    10     7      3
                     _GetRxFifoDepth
                    _GetRxFifoStatus
                _ReadMessageFromFifo
 ---------------------------------------------------------------------------------
 (10) _ReadMessageFromFifo                                12     8      4    1268
                                             11 COMRAM    12     8      4
                             _memcpy
 ---------------------------------------------------------------------------------
 (10) _memcpy                                             11     5      6     599
                                              0 COMRAM    11     5      6
 ---------------------------------------------------------------------------------
 (9) _GetRxFifoStatus                                      1     1      0      22
                                              0 COMRAM     1     1      0
 ---------------------------------------------------------------------------------
 (9) _GetRxFifoDepth                                       2     2      0      22
                                              0 COMRAM     2     2      0
 ---------------------------------------------------------------------------------
 (7) Absolute function(Fake)                               0     0      0       0
 ---------------------------------------------------------------------------------
 Estimated maximum stack depth 10
 ---------------------------------------------------------------------------------

 Call Graph Graphs:

 _main (ROOT)
   _SYSTEM_Initialize
     _CAN1_Initialize
       _CAN1_BitRateConfiguration
       _CAN1_OperationModeSet
         _CAN1_OperationModeGet
       _CAN1_RX_FIFO_Configuration
         _CAN1_SetFIFO1NotEmptyHandler
       _CAN1_RX_FIFO_FilterMaskConfiguration
       _CAN1_RX_FIFO_ResetInfo
       _CAN1_TX_FIFO_Configuration
     _INTERRUPT_Initialize
     _OSCILLATOR_Initialize
     _PIN_MANAGER_Initialize
     _PMD_Initialize
     _TU16A_Initialize
       _TU16A_SetInterruptHandler

 _INTERRUPT_InterruptManager (ROOT)
   _CAN1_RXI_ISR
     Absolute function(Fake) *
     _DefaultFIFO1NotEmptyHandler *
       _CAN1_ReceiveFrom
         _Receive
           _GetRxFifoDepth
           _GetRxFifoStatus
           _ReadMessageFromFifo
             _memcpy
       _CAN1_ReceivedMessageCountGet
         _GetRxFifoDepth
         _GetRxFifoStatus
       _CAN1_Transmit
         _ValidateTransmission
           _GetTxFifoStatus
           i2_CAN1_OperationModeGet
         _WriteMessageToFifo
           _memcpy
         _isTxChannel
       _CAN1_TransmitFIFOStatusGet
         _GetTxFifoStatus
         _isTxChannel
   _TU16A_ISR
     Absolute function(Fake) *
     _TU16A_DefaultInterruptHandler *
       _CAN1_Transmit
         _ValidateTransmission
           _GetTxFifoStatus
           i2_CAN1_OperationModeGet
         _WriteMessageToFifo
           _memcpy
         _isTxChannel
       _CAN1_TransmitFIFOStatusGet
         _GetTxFifoStatus
         _isTxChannel

 Address spaces:
Name               Size   Autos  Total    Cost      Usage
BIGRAM            32FF      0       0     107        0.0%
EEDATA             400      0       0       0        0.0%
BITBANK55          100      0       0     105        0.0%
BANK55             100      0       0     106        0.0%
BITBANK54          100      0       0     103        0.0%
BANK54             100      0       0     104        0.0%
BITBANK53          100      0       0     101        0.0%
BANK53             100      0       0     102        0.0%
BITBANK52          100      0       0      99        0.0%
BANK52             100      0       0     100        0.0%
BITBANK51          100      0       0      97        0.0%
BANK51             100      0       0      98        0.0%
BITBANK50          100      0       0      95        0.0%
BANK50             100      0       0      96        0.0%
BITBANK49          100      0       0      93        0.0%
BANK49             100      0       0      94        0.0%
BITBANK48          100      0       0      91        0.0%
BANK48             100      0       0      92        0.0%
BITBANK47          100      0       0      89        0.0%
BANK47             100      0       0      90        0.0%
BITBANK46          100      0       0      87        0.0%
BANK46             100      0       0      88        0.0%
BITBANK45          100      0       0      85        0.0%
BANK45             100      0       0      86        0.0%
BITBANK44          100      0       0      83        0.0%
BANK44             100      0       0      84        0.0%
BITBANK43          100      0       0      81        0.0%
BANK43             100      0       0      82        0.0%
BITBANK42          100      0       0      79        0.0%
BANK42             100      0       0      80        0.0%
BITBANK41          100      0       0      77        0.0%
BANK41             100      0       0      78        0.0%
BITBANK40          100      0       0      75        0.0%
BANK40             100      0       0      76        0.0%
BITBANK39          100      0       0      73        0.0%
BANK39             100      0       0      74        0.0%
BITBANK38          100      0       0      71        0.0%
BANK38             100      0       0      72        0.0%
BITBANK37          100      0       0      69        0.0%
BANK37             100      0       0      70        0.0%
BITBANK36          100      0       0      67        0.0%
BANK36             100      0       0      68        0.0%
BITBANK35          100      0       0      65        0.0%
BANK35             100      0       0      66        0.0%
BITBANK34          100      0       0      63        0.0%
BANK34             100      0       0      64        0.0%
BITBANK33          100      0       0      61        0.0%
BANK33             100      0       0      62        0.0%
BITBANK32          100      0       0      59        0.0%
BANK32             100      0       0      60        0.0%
BITBANK31          100      0       0      57        0.0%
BANK31             100      0       0      58        0.0%
BITBANK30          100      0       0      55        0.0%
BANK30             100      0       0      56        0.0%
BITBANK29          100      0       0      53        0.0%
BANK29             100      0       0      54        0.0%
BITBANK28          100      0       0      51        0.0%
BANK28             100      0       0      52        0.0%
BITBANK27          100      0       0      48        0.0%
BANK27             100      0       0      49        0.0%
BITBANK26          100      0       0      46        0.0%
BANK26             100      0       0      47        0.0%
BITBANK25          100      0       0      44        0.0%
BANK25             100      0       0      45        0.0%
BITBANK24          100      0       0      42        0.0%
BANK24             100      0       0      43        0.0%
BITBANK23          100      0       0      40        0.0%
BANK23             100      0       0      41        0.0%
BITBANK22          100      0       0      38        0.0%
BANK22             100      0       0      39        0.0%
BITBANK21          100      0       0      36        0.0%
BANK21             100      0       0      37        0.0%
BITBANK20          100      0       0      34        0.0%
BANK20             100      0       0      35        0.0%
BITBANK19          100      0       0      32        0.0%
BANK19             100      0       0      33        0.0%
BITBANK18          100      0       0      30        0.0%
BANK18             100      0       0      31        0.0%
BITBANK17          100      0       0      28        0.0%
BANK17             100      0       0      29        0.0%
BITBANK16          100      0       0      26        0.0%
BANK16             100      0       0      27        0.0%
BITBANK15          100      0       0      24        0.0%
BANK15             100      0       0      25        0.0%
BITBANK14          100      0       0      22        0.0%
BANK14             100      0       0      23        0.0%
BITBANK13          100      0       0      20        0.0%
BANK13             100      0       0      21        0.0%
BITBANK12          100      0       0      18        0.0%
BANK12             100      0       0      19        0.0%
BITBANK11          100      0       0      16        0.0%
BANK11             100      0       0      17        0.0%
BITBANK10          100      0       0      14        0.0%
BANK10             100      0       0      15        0.0%
BITBANK9           100      0       0      12        0.0%
BANK9              100      0       0      13        0.0%
BITBANK8           100      0       0      10        0.0%
BANK8              100      0       0      11        0.0%
BITBANK7           100      0       0       8        0.0%
BANK7              100      0       0       9        0.0%
BITBANK6           100      0       0       6        0.0%
BANK6              100      0       0       7        0.0%
BITBANK5            A0      0       0       4        0.0%
BANK5               A0      3       5       5        3.1%
BITCOMRAM           5F      0       0       0        0.0%
COMRAM              5F     45      5B       1       95.8%
BITSFR_5             0      0       0     200        0.0%
SFR_5                0      0       0     200        0.0%
BITSFR_4             0      0       0     200        0.0%
SFR_4                0      0       0     200        0.0%
BITSFR_3             0      0       0     200        0.0%
SFR_3                0      0       0     200        0.0%
BITSFR_2             0      0       0     200        0.0%
SFR_2                0      0       0     200        0.0%
BITSFR_1             0      0       0     200        0.0%
SFR_1                0      0       0     200        0.0%
BITSFR               0      0       0     200        0.0%
SFR                  0      0       0     200        0.0%
STACK                0      0       0       2        0.0%
NULL                 0      0       0       0        0.0%
ABS                  0      0      60      50        0.0%
DATA                 0      0      60       3        0.0%
CODE                 0      0       0       0        0.0%


Microchip Technology PIC18 Macro Assembler V2.20 build 20200408173844 
Symbol Table                                                                                   Wed Jan 20 14:14:01 2021

            TU16A_DefaultInterruptHandler@F23391 0551                           CAN1_ReceiveFrom@status 0525  
                               _CAN1_ReceiveFrom 4492                   DefaultFIFO1NotEmptyHandler@PID 053A  
                                            l143 4694                                              l152 4832  
                                            l170 4238                                              l146 46C2  
                                            l155 46EE                                              l173 4866  
                                            l149 47B6                                              l405 484E  
                                            l325 45E6                                              l166 41FC  
                                            l159 4598                                              l169 4236  
                                            l276 485C                                              l428 487C  
                                            l482 47EE                                              l491 4742  
                                            l485 4782                                              l582 435E  
                                            l488 4790                                              l594 483A  
                                            l595 483A                                     ?_isTxChannel 0501  
                        __size_of_PMD_Initialize 0028                                              prod 0004F3  
                                            tosl 0004FD                                              wreg 0004E8  
                DefaultFIFO1NotEmptyHandler@mode 052A                                             l2201 4682  
                                           l2211 46BE                                             l2203 4684  
                                           l2221 46C4                                             l2213 46C0  
                                           l2205 4696                                             l2231 41D6  
                                           l2223 41A6                                             l2207 46A8  
                                           l2215 4792                                             l2233 41E8  
                                           l2225 41AC                                             l2209 46BA  
                                           l2217 47A4                                             l2401 4338  
                                           l2235 420C                                             l2227 41B4  
                                           l2219 4820                                             l2331 457E  
                                           l2411 4346                                             l2403 433A  
                                           l2243 4842                                             l2237 4216  
                                           l2229 41C6                                             l2341 4592  
                                           l2333 4582                                             l2325 4546  
                                           l2421 476C                                             l2413 4348  
                                           l2405 433C                                             l2239 4232  
                                           l2335 4586                                             l2327 454A  
                                           l2415 434A                                             l2407 433E  
                                           l2351 45CA                                             l2343 459A  
                                           l2337 458A                                             l2329 4560  
                                           l2417 434C                                             l2409 4344  
                                           l2353 45CC                                             l2345 459E  
                                           l2441 47E2                                             l2195 4668  
                                           l2339 458E                                             l2419 4352  
                                           l2355 45DE                                             l2347 45C6  
                                           l2443 47E6                                             l2435 47D6  
              CAN1_ReceivedMessageCountGet@index 050A                                             l2381 471C  
                                           l2357 45E0                                             l2349 45C8  
                                           l2445 47EA                                             l2437 47DA  
                                           l2199 466E                                             l2391 42F4  
                                           l2383 42CE                                             l2439 47DE  
                                           l2393 42F6                                             l2385 42EA  
                                           l2379 487A                                             l2395 42FA  
                                           l2387 42EC                                             l2475 4834  
                                           l2397 4304                                             l2389 42F2  
                                           l2477 4838                                             l2399 4306  
                                           l1991 4850                                             l1993 485E  
                                           _FIFO 3811                               _WriteMessageToFifo 3814  
                                           u1400 41E8                                             u1401 41E4  
                                           u1410 420C                                             u1411 4208  
                                           u1420 422E                                             u1421 422A  
                                           _LATA 0004BE                                             _LATB 0004BF  
                                           _LATC 0004C0                                             _LATD 0004C1  
                                           _LATE 0004C2                                             u1370 4694  
                                           _LATF 0004C3                                             u1371 4690  
                                           u1380 41C6                                             u1381 41C2  
                                           u1390 41D6                                             u1391 41D2  
                                           u1560 4560                                             u1561 455C  
                                           u1590 4790                                             u1591 478C  
                                   _CAN1_RXI_ISR 46F0                                             _PMD0 000060  
                                           _PMD1 000061                                             _PMD2 000062  
                                           _PMD3 000063                                             _PMD4 000064  
                                           _PMD5 000065                                             _PMD6 000066  
                                           _PMD7 000067                                             _PMD8 000068  
                                           _PLLR 000590                                             _WPUA 000401  
                                           _WPUB 000409                                             _WPUC 000411  
                                           _WPUD 000419                                             _WPUE 000421  
                                           _WPUF 000429                          __size_of_GetRxFifoDepth 001E  
                         __size_of_CAN1_Transmit 0094                           CAN1_Transmit@txFifoObj 051B  
                                           _main 4834                                             fsr1h 0004E2  
                                           fsr2h 0004DA                                             indf1 0004E7  
                                           indf2 0004DF                                             fsr1l 0004E1  
                                           fsr2l 0004D9                                             prodl 0004F3  
                                           start 001A                              ?_WriteMessageToFifo 050C  
                                   ___param_bank 000000                                  __end_of_Receive 40D8  
            CAN1_SetFIFO1NotEmptyHandler@handler 0560                               __size_of_TU16A_ISR 0042  
                               _TU16A_Initialize 459A                   __size_of_OSCILLATOR_Initialize 0026  
                  __end_of_OSCILLATOR_Initialize 4792               __size_of_TU16A_SetInterruptHandler 000E  
                     WriteMessageToFifo@txCanMsg 050E                                            ?_main 0501  
                     ?_TU16A_SetInterruptHandler 0560                                  _isTxChannel$620 0501  
                                          i2l121 3EC4                                            i2l202 44EA  
                                          i2l132 3E98                                            i2l214 41A0  
                                          i2l222 4806                                            i2l218 4664  
                                          i2l242 42CC                                            i2l402 4628  
                                          i2l219 4666                                            i2l411 4434  
                                          i2l228 3A58                                            i2l173 4870  
                                          i2l245 42CC                                            i2l190 40D6  
                                          i2l183 3C98                                            i2l239 3FEA  
                                          i2l176 47D4                                            i2l280 471A  
                                          i2l249 476A                                            i2l433 439C  
                                          i2l179 481E                                            i2l437 43BC  
                                          _OSCEN 0000B3                             ??_WriteMessageToFifo 0510  
                                          _TRISA 0004C6                                            _TRISB 0004C7  
                                          _TRISC 0004C8                                            _TRISD 0004C9  
                                          _TRISE 0004CA                                            _TRISF 0004CB  
                   __size_of_ReadMessageFromFifo 0240                         __size_of_CAN1_Initialize 0054  
                       __size_of_GetRxFifoStatus 0018                                            pclath 0004FA  
                                          tablat 0004F5                        ??i2_CAN1_OperationModeGet 0501  
                                          plusw1 0004E3                                            plusw2 0004DB  
                    GetRxFifoStatus@validChannel 0501                                            status 0004D8  
                       ReadMessageFromFifo@msgId 0513                     ??_CAN1_TX_FIFO_Configuration 0560  
                                   __end_of_FIFO 3813                                  __initialization 4436  
                              __end_of_DLC_BYTES 3811                              CAN1_Transmit@status 051A  
        CAN1_ReceivedMessageCountGet@rxMsgStatus 0505                                     __end_of_main 4842  
                    CAN1_RX_FIFO_ResetInfo@index 0560                      ?_INTERRUPT_InterruptManager 0501  
                                  _CAN1_Transmit 423A              __end_of_DefaultFIFO1NotEmptyHandler 3EC6  
                    _DefaultFIFO1NotEmptyHandler 3C9A                                  Receive@rxCanMsg 0519  
                                         ??_main 0563                                    __activetblptr 000003  
              __end_of_TU16A_SetInterruptHandler 4850                                           _C1CONH 000101  
                                         _C1CONL 000100                                           _C1CONU 000102  
                                         _C1TDCH 00010D                                           _C1TDCU 00010E  
                       __size_of_GetTxFifoStatus 0018              __size_of_CAN1_TX_FIFO_Configuration 0014  
                                         _ANSELA 000400                                           _ANSELB 000408  
                                         _ANSELC 000410                                           _ANSELD 000418  
                                         _ANSELE 000420                                           _ANSELF 000428  
                                         _RB0PPS 000209                      WriteMessageToFifo@txFifoObj 050C  
                                         _ODCONA 000402                                           _ODCONB 00040A  
                                         _ODCONC 000412                                           _ODCOND 00041A  
                                         _ODCONE 000422                                           _ODCONF 00042A  
                                         i2l2001 3FFA                                           i2l2011 405E  
                                         i2l2003 4008                                           i2l2021 40D0  
                                         i2l2013 4070                                           i2l2005 4024  
                                         i2l2101 3F74                                           i2l2015 409A  
                                         i2l2007 4036                                           i2l2023 40D4  
                                         i2l2103 3FCC                                           i2l2031 4640  
                                         i2l2017 40AE                                           i2l2009 404A  
                                         i2l2121 40FC                                           i2l2113 40D8  
                                         i2l2105 3FCE                                           i2l2041 3838  
                                         i2l2033 4660                                           i2l2019 40BC  
                                         i2l2131 4152                                           i2l2123 410A  
                                         i2l2107 3FE4                                           i2l2051 389C  
                                         i2l2043 3852                                           i2l2027 462C  
                                         i2l2133 4164                                           i2l2125 4112  
                                         i2l2141 418C                                           i2l2117 40E0  
                                         i2l2109 3FE8                                           i2l2061 3916  
                                         i2l2053 38AE                                           i2l2045 3868  
                                         i2l2037 3814                                           i2l2029 4630  
                                         i2l2301 3E02                                           i2l2143 418E  
                                         i2l2135 4170                                           i2l2127 4120  
                                         i2l2119 40F4                                           i2l1343 4868  
                                         i2l2071 39B0                                           i2l2063 392E  
                                         i2l2047 387C                                           i2l2055 38C6  
                                         i2l2039 3838                                           i2l2311 3E68  
                                         i2l2303 3E14                                           i2l2161 44D8  
                                         i2l2145 419E                                           i2l2137 4182  
                                         i2l2129 4128                                           i2l2081 3ECC  
                                         i2l2073 39D4                                           i2l2065 3942  
                                         i2l2057 38F6                                           i2l2049 388E  
                                         i2l2321 3EB6                                           i2l2313 3E80  
                                         i2l2305 3E2C                                           i2l2163 44E8  
                                         i2l2155 449C                                           i2l2139 4188  
                                         i2l1339 47F2                                           i2l2091 3F36  
                                         i2l2083 3EDC                                           i2l2075 39E6  
                                         i2l2067 3968                                           i2l2059 3908  
                                         i2l2171 4760                                           i2l2315 3E90  
                                         i2l2307 3E3E                                           i2l2251 3CBA  
                                         i2l1277 4544                                           i2l2157 44BE  
                                         i2l2149 4494                                           i2l2093 3F38  
                                         i2l2085 3F04                                           i2l2077 3A00  
                                         i2l2069 398C                                           i2l2181 4252  
                                         i2l2173 4768                                           i2l2309 3E56  
                                         i2l2317 3E98                                           i2l2261 3D08  
                                         i2l2245 3C9A                                           i2l2159 44D6  
                                         i2l2095 3F50                                           i2l2087 3F12  
                                         i2l2079 3EC8                                           i2l2191 42B4  
                                         i2l2183 4262                                           i2l2167 4746  
                                         i2l2319 3EA0                                           i2l2271 3D26  
                                         i2l2263 3D18                                           i2l2255 3CD8  
                                         i2l2247 3C9E                                           i2l2423 46F0  
                                         i2l2431 45FA                                           i2l2097 3F5E  
                                         i2l2089 3F22                                           i2l2185 4272  
                                         i2l2177 423C                                           i2l2169 474A  
                                         i2l2281 3D46                                           i2l2273 3D28  
                                         i2l2265 3D20                                           i2l2257 3CE8  
                                         i2l2249 3CA6                                           i2l2425 4700  
                                         i2l2361 43E8                                           i2l2433 460E  
                                         i2l2099 3F72                                           i2l2187 428E  
                                         i2l2179 423C                                           i2l2291 3D96  
                                         i2l2275 3D2E                                           i2l2267 3D22  
                                         i2l2259 3CF8                                           i2l2371 43F8  
                                         i2l2363 43EA                                           i2l2427 45E8  
                                         i2l2189 42A0                                           i2l2293 3DAE  
                                         i2l2285 3D5C                                           i2l2277 3D32  
                                         i2l2269 3D24                                           i2l2373 4408  
                                         i2l2365 43F2                                           i2l2429 45F8  
                                         i2l2295 3DC0                                           i2l2287 3D6C  
                                         i2l2279 3D36                                           i2l2375 4410  
                                         i2l2367 43F4                                           i2l2359 43D6  
                                         i2l2471 43AA                                           i2l2297 3DD8  
                                         i2l2289 3D84                                           i2l2377 4426  
                                         i2l2369 43F6                                           i2l2473 43B8  
                                         i2l2465 4378                                           i2l1931 44EC  
                                         i2l2299 3DEA                                           i2l2467 4386  
                                         i2l1933 4500                                           i2l1941 452A  
                                         i2l2469 4394                                           i2l1943 47BA  
                                         i2l1935 4510                                           i2l1951 3A5A  
                                         i2l1937 4514                                           i2l1961 3ADE  
                                         i2l1953 3A6A                                           i2l1947 480A  
                                         i2l1939 4526                                           i2l1971 3B7C  
                                         i2l1963 3B0C                                           i2l1955 3A6A  
                                         i2l1981 3BE2                                           i2l1973 3B96  
                                         i2l1965 3B3C                                           i2l1957 3A88  
                                         i2l1983 3BF4                                           i2l1975 3BA8  
                                         i2l1967 3B5A                                           i2l1959 3AB2  
                              __end_of_TU16A_ISR 462A                                           i2l1977 3BC0  
                                         i2l1985 3C18                                           i2l1969 3B68  
                                         _INLVLA 000404                                           _INLVLB 00040C  
                                         i2l1987 3C3C                                           i2l1979 3BCE  
                                         _INLVLC 000414                                           _INLVLD 00041C  
                                         i2l1989 3C84                                           i2l1997 3FEE  
                                         _INLVLE 000424                                           _INLVLF 00042C  
                                         i2l1999 3FF2                          ??_CAN1_OperationModeGet 0560  
                                         _OSCFRQ 0000B1                   ??_CAN1_ReceivedMessageCountGet 0503  
                        ??_CAN1_OperationModeSet 0560                                        ??_Receive 051B  
                    ??_CAN1_BitRateConfiguration 0560                                   ?_CAN1_Transmit 0518  
                                         _memcpy 44EC                                           clear_0 4478  
                       ??_CAN1_RX_FIFO_ResetInfo 0560          CAN1_ReceivedMessageCountGet@totalMsgObj 0503  
                                 _PMD_Initialize 471C                                     __pdataCOMRAM 0551  
                  __size_of_ValidateTransmission 0126                                     __mediumconst 0000  
                           __size_of_isTxChannel 003E                                           tblptrh 0004F7  
                                         tblptrl 0004F6                                           tblptru 0004F8  
                             isTxChannel@channel 0502        TU16A_SetInterruptHandler@InterruptHandler 0560  
                  __size_of_INTERRUPT_Initialize 0004                                   _GetRxFifoDepth 47B8  
                       __end_of_CAN1_ReceiveFrom 44EC                                _SYSTEM_Initialize 47D6  
                                     __accesstop 0560                          __end_of__initialization 448C  
                              ??_CAN1_Initialize 0563                               ?_SYSTEM_Initialize 0501  
                              ??_GetRxFifoStatus 0501                                    ___rparam_used 000001  
                                 __pcstackCOMRAM 0501                                     __pidataBANK5 487E  
                            ??_SYSTEM_Initialize 0563                  ??_TU16A_DefaultInterruptHandler 051E  
                   ??_CAN1_TransmitFIFOStatusGet 0503                           __end_of_PMD_Initialize 4744  
            DefaultFIFO1NotEmptyHandler@data_Out 052B        DefaultFIFO1NotEmptyHandler@Return_Message 053B  
                      _CAN1_BitRateConfiguration 46C4                               Receive@rxMsgStatus 0520  
           __end_of_CAN1_SetFIFO1NotEmptyHandler 485E            __size_of_CAN1_SetFIFO1NotEmptyHandler 000E  
                   _CAN1_SetFIFO1NotEmptyHandler 4850                                    _TU16ACON0bits 000387  
                                  _TU16ACON1bits 000388                           __end_of_GetRxFifoDepth 47D6  
                      __end_of_SYSTEM_Initialize 47F0                                 Receive@rxFifoObj 051E  
                   ValidateTransmission@txCanMsg 0502                         __end_of_TU16A_Initialize 45E8  
                                     __pnvCOMRAM 0559               __end_of_CAN1_TX_FIFO_Configuration 4834  
                     _CAN1_TX_FIFO_Configuration 4820                                ??_GetTxFifoStatus 0501  
            __size_of_CAN1_TransmitFIFOStatusGet 0028                                          IVTBASEH 00045E  
                                        IVTBASEL 00045D                                          IVTBASEU 00045F  
            DefaultFIFO1NotEmptyHandler@numBytes 0529                              _ReadMessageFromFifo 3A5A  
                         _TU16A_InterruptHandler 0559                                  ??_CAN1_Transmit 051A  
                                      _C1DBTCFGH 000109                                        _C1DBTCFGL 000108  
                                      _C1DBTCFGT 00010B                                        _C1DBTCFGU 00010A  
            CAN1_ReceivedMessageCountGet@channel 0506                                          ?_memcpy 0501  
                                      _C1NBTCFGH 000105                                        _C1NBTCFGL 000104  
                                      _C1NBTCFGT 000107                                        _C1NBTCFGU 000106  
                                ?_PMD_Initialize 0501                  __size_of_CAN1_RX_FIFO_ResetInfo 002E  
                    ??_TU16A_SetInterruptHandler 0563                             ?_ReadMessageFromFifo 050C  
                                        _TU16APS 00038A                                          _OSCCON1 0000AD  
                                        _OSCCON3 0000AF                                        _C1TXQCONH 000151  
                                      _C1TXQCONL 000150                                        _C1TXQCONT 000153  
                                      _C1TXQCONU 000152                                          _OSCTUNE 0000B0  
                                        i2u91_40 3AC4                                          i2u90_48 3A9C  
                                        i2u91_41 3ABC                                          i2u93_40 3AF0  
                                        i2u92_48 3AC6                                          i2u93_41 3AE8  
                                    _C1FIFOCON1H 00015D                                          i2u95_40 3B1E  
                                        i2u94_48 3AF2                                          i2u95_41 3B16  
                                    _C1FIFOCON1L 00015C                                          i2u88_40 4544  
                                        i2u88_41 4540                                      _C1FIFOCON1T 00015F  
                                    _C1FIFOCON1U 00015E                                          i2u97_40 3B96  
                                        i2u96_48 3B20                                          i2u89_40 3A9A  
                                        i2u97_41 3B92                                          i2u89_41 3A92  
                                        i2u98_45 3B98                                          i2u99_45 3BE4  
                                        _SLRCONA 000403                    ?_CAN1_SetFIFO1NotEmptyHandler 0560  
                                        _SLRCONB 00040B                                          _SLRCONC 000413  
                                        _SLRCOND 00041B                                          _SLRCONE 000423  
                                        _SLRCONF 00042B                                  ?_GetRxFifoDepth 0501  
                                        _TUCHAIN 0003BB  DefaultFIFO1NotEmptyHandler@Currently_Processing 0533  
                                   Receive@index 0521                                          _Receive 3FEC  
                                        __Hparam 0000                                          __Lparam 0000  
                                   __psmallconst 3800                          WriteMessageToFifo@msgId 0514  
                                      _DLC_BYTES 3801                                          __pcinit 4436  
                                __size_of_memcpy 005A                                          __ramtop 3800  
                                        __ptext0 4834                                          __ptext1 47D6  
                                        __ptext2 459A                                          __ptext3 4842  
                                        __ptext4 471C                                          __ptext5 42CE  
                                        __ptext6 476C                                          __ptext7 487A  
                                        __ptext8 4546                                          __ptext9 4820  
          __end_of_TU16A_DefaultInterruptHandler 4436           __size_of_TU16A_DefaultInterruptHandler 0060  
                  _TU16A_DefaultInterruptHandler 43D6                            ??_ReadMessageFromFifo 0510  
                          _OSCILLATOR_Initialize 476C                        _CAN1_FIFO1NotEmptyHandler 0546  
                    __size_of_WriteMessageToFifo 0246                         ??_PIN_MANAGER_Initialize 0560  
                                        _rxFifos 0563                        ValidateTransmission@field 050C  
                     __size_of_SYSTEM_Initialize 001A                             end_of_initialization 448C  
           __size_of_DefaultFIFO1NotEmptyHandler 022C                                          memcpy@d 0507  
                                        memcpy@n 0505                                          memcpy@s 0509  
                         _CAN1_RX_FIFO_ResetInfo 4668                       GetRxFifoDepth@validChannel 0502  
                                    _C1TRECUbits 000136                        _TU16A_SetInterruptHandler 4842  
                                      _TU16ACON0 000387                                        _TU16ACON1 000388  
                 __size_of_CAN1_OperationModeGet 000A                   __size_of_CAN1_OperationModeSet 0098  
                  __end_of_CAN1_OperationModeGet 4868                    __end_of_CAN1_OperationModeSet 423A  
                                      _TU16ATMRH 00038C                                        _TU16ATMRL 00038B  
                                      _TU16A_ISR 45E8                     ??_CAN1_RX_FIFO_Configuration 0563  
                   ReadMessageFromFifo@rxFifoObj 050C                                          postdec1 0004E5  
                                        postdec2 0004DD                                          postinc0 0004EE  
                                        postinc2 0004DE               __end_of_CAN1_TransmitFIFOStatusGet 476C  
                     _CAN1_TransmitFIFOStatusGet 4744                 CAN1_TransmitFIFOStatusGet@status 0503  
                                _CAN1_Initialize 4546                                  _GetRxFifoStatus 4808  
                       ?i2_CAN1_OperationModeGet 0501        TU16A_DefaultInterruptHandler@Transmission 0527  
            __size_of_CAN1_RX_FIFO_Configuration 002E     __end_of_CAN1_RX_FIFO_FilterMaskConfiguration 47B8  
  __size_of_CAN1_RX_FIFO_FilterMaskConfiguration 0026            ?_CAN1_RX_FIFO_FilterMaskConfiguration 0501  
         ??_CAN1_RX_FIFO_FilterMaskConfiguration 0560             _CAN1_RX_FIFO_FilterMaskConfiguration 4792  
               ValidateTransmission@validChannel 050A                                ?_CAN1_ReceiveFrom 0522  
                          CAN1_Transmit@txCanMsg 0518                               ??_CAN1_ReceiveFrom 0524  
                   __end_of_ValidateTransmission 3FEC                                       ?_TU16A_ISR 0501  
                ValidateTransmission@txMsgStatus 050B                     __end_of_INTERRUPT_Initialize 487E  
                                  __pidataCOMRAM 4872             __end_of_CAN1_ReceivedMessageCountGet 41A2  
          __size_of_CAN1_ReceivedMessageCountGet 00CA                     _CAN1_ReceivedMessageCountGet 40D8  
                                 __end_of_memcpy 4546                           ?_OSCILLATOR_Initialize 0501  
                                  ??_isTxChannel 0501                                   Receive@channel 0518  
                            start_initialization 4436                  __size_of_PIN_MANAGER_Initialize 0092  
                                _GetTxFifoStatus 47F0                 fp__TU16A_DefaultInterruptHandler 0000  
                 ?_TU16A_DefaultInterruptHandler 0501            CAN1_TransmitFIFOStatusGet@fifoChannel 0504  
                                     ivt0x8_base 0008                                    ?_CAN1_RXI_ISR 0501  
                              ?_TU16A_Initialize 0501                      ?_CAN1_TX_FIFO_Configuration 0501  
                             ??_TU16A_Initialize 0563                                 ??_PMD_Initialize 0560  
                                    __pdataBANK5 0563                          __end_of_CAN1_Initialize 459A  
                                       ??_memcpy 0507                          __end_of_GetRxFifoStatus 4820  
                               ??_GetRxFifoDepth 0501                  __end_ofi2_CAN1_OperationModeGet 4872  
                  ?_CAN1_ReceivedMessageCountGet 0501                                      __pbssCOMRAM 0546  
                                  __pcstackBANK5 0560                              __end_of_isTxChannel 4668  
                                 ??_CAN1_RXI_ISR 0542               __end_of_CAN1_RX_FIFO_Configuration 46C4  
                     _CAN1_RX_FIFO_Configuration 4696                                      ??_TU16A_ISR 052E  
                                       ?_Receive 0518                           _PIN_MANAGER_Initialize 42CE  
                                       _C1FIFOBA 00014C                                         _C1MASK0H 000191  
                                       _C1MASK0L 000190                                         _C1MASK0T 000193  
                                       _C1MASK0U 000192                            __end_of_CAN1_Transmit 42CE  
                   ??_INTERRUPT_InterruptManager 0542                          __end_of_GetTxFifoStatus 4808  
                   ?_DefaultFIFO1NotEmptyHandler 0501             CAN1_ReceivedMessageCountGet@fifoHead 0509  
           CAN1_ReceivedMessageCountGet@fifoTail 0508                                      __smallconst 3800  
                                     _C1FLTCON0L 000180                                       _C1FLTOBJ0H 00018D  
                                     _C1FLTOBJ0L 00018C                                       _C1FLTOBJ0T 00018F  
                                     _C1FLTOBJ0U 00018E                                       _C1CONHbits 000101  
                           _ValidateTransmission 3EC6                 CAN1_OperationModeSet@requestMode 0562  
                                       _CANRXPPS 00023D                                       _C1CONTbits 000103  
                                     _C1CONUbits 000102                          ?_CAN1_RX_FIFO_ResetInfo 0501  
                                     _C1INTHbits 00011D                             _INTERRUPT_Initialize 487A  
                                     _C1INTTbits 00011F                                       _C1INTUbits 00011E  
           CAN1_ReceivedMessageCountGet@numOfMsg 0504                                         _PIE0bits 00049E  
                                       _PIE4bits 0004A2                                         _TU16ACLK 00038F  
                                       _TU16ACRH 00038C                                         _TU16ACRL 00038B  
                                       _TU16AERS 000390                                         _TU16AHLT 000389  
                                       i2u100_40 4008                                         _TU16APRH 00038E  
                                       i2u100_41 4004                                         _TU16APRL 00038D  
                                       i2u101_40 4036                                         i2u101_41 4032  
                                       i2u102_40 409A                                         i2u110_40 3986  
                                       i2u102_41 4096                                         i2u110_41 397E  
                                       i2u103_40 40BC                                         i2u103_41 40B8  
                                       i2u111_45 3988                                         i2u120_40 3F36  
                                       i2u112_40 39AA                                         i2u104_40 4640  
                                       i2u120_41 3F32                                         i2u112_41 39A2  
                                       i2u104_41 463C                                         i2u121_40 3F50  
                                       i2u105_40 4660                                         i2u121_41 3F4C  
                                       i2u105_41 465C                                         i2u113_45 39AC  
                                       i2u130_40 419E                                         i2u122_40 3F5E  
                                       i2u114_40 39CE                                         i2u106_40 3852  
                                       i2u130_41 419A                                         i2u122_41 3F5A  
                                       i2u114_41 39C6                                         i2u106_41 384E  
                                       i2u131_40 44BE                                         i2u123_40 3F72  
                                       i2u131_41 44BA                                         i2u123_41 3F6E  
                                       i2u115_45 39D0                                         i2u107_45 386C  
                                       i2u132_40 44E8                                         i2u124_40 3FCC  
                                       i2u116_40 3A00                                         i2u132_41 44E4  
                                       i2u124_41 3FC8                                         i2u116_41 39FC  
                                       i2u108_45 38B2                                         i2u125_40 3FE4  
                                       i2u109_40 3960                                         i2u133_40 4760  
                                       i2u125_41 3FE0                                         i2u109_41 3958  
                                       i2u133_41 475C                                         i2u117_45 3EF4  
                                       i2u126_40 410A                                         i2u118_40 3F12  
                                       i2u109_48 3962                                         i2u134_40 4252  
                                       i2u150_40 3DEA                                         i2u126_41 4106  
                                       i2u118_41 3F0E                                         i2u134_41 424E  
                                       i2u150_41 3DE6                                         i2u127_40 4120  
                                       i2u119_40 3F22                                         i2u135_40 4272  
                                       i2u151_40 3E14                                         i2u143_40 3CBA  
                                       i2u127_41 411C                                         i2u119_41 3F1E  
                                       i2u135_41 426E                                         i2u151_41 3E10  
                                       i2u143_41 3CB6              __size_of_INTERRUPT_InterruptManager 0076  
                                       i2u128_40 4164                                         i2u136_40 42A0  
                                       i2u152_40 3E3E                                         i2u144_40 3CD8  
                                       i2u160_40 4700                                         i2u128_41 4160  
                                       i2u136_41 429C                                         i2u152_41 3E3A  
                                       i2u144_41 3CD4                                         i2u160_41 46FC  
                                       i2u129_40 4182                                         i2u153_40 3E68  
                                       i2u145_40 3D46                                         i2u129_41 417E  
                                       i2u153_41 3E64                                         i2u145_41 3D42  
                                       i2u154_40 3E90                                         i2u146_40 3D58  
                                       i2u161_48 4706                                         i2u162_40 45F8  
                                       i2u170_40 43B8                                         i2u154_41 3E8C  
                                       i2u146_41 3D54                                         i2u161_49 471A  
                                       i2u162_41 45F4                                         i2u170_41 43B4  
                                       i2u155_40 3EB6                                         i2u147_40 3D6C  
                                       i2u163_40 460E                                         i2u155_41 3EB2  
                                       i2u147_41 3D68                                         i2u163_41 460A  
                                       i2u148_40 3D96                                         i2u148_41 3D92  
                                       i2u149_40 3DC0                                         i2u164_48 4614  
                                       i2u149_41 3DBC                                         i2u157_41 43E0  
                                       i2u164_49 4628                                         i2u158_40 4426  
                                       i2u158_41 4422                                         i2u167_40 4386  
                                       i2u167_41 4382                                         _PIR0bits 0004AE  
                                       i2u168_40 4394                                         i2u168_41 4390  
                                       i2u169_40 43AA                                         i2u169_41 43A6  
                                      _rxMsgData 0549                                         _PIR4bits 0004B2  
                    ?_CAN1_TransmitFIFOStatusGet 0501                      __end_of_ReadMessageFromFifo 3C9A  
                               ?_CAN1_Initialize 0501                       __end_of_WriteMessageToFifo 3A5A  
                               ?_GetRxFifoStatus 0501                                      _isTxChannel 462A  
                          ?_ValidateTransmission 0502                    ??_DefaultFIFO1NotEmptyHandler 0528  
                 __end_of_CAN1_RX_FIFO_ResetInfo 4696                                      _INTCON0bits 0004D6  
                                      copy_data0 4466                            ?_INTERRUPT_Initialize 0501  
                                  Receive@status 051D                                         __Hrparam 0000  
               __size_ofi2_CAN1_OperationModeGet 000A                                 __size_of_Receive 00EC  
                                      memcpy@tmp 050B                            _CAN1_OperationModeGet 485E  
                                       __Lrparam 0000                            _CAN1_OperationModeSet 41A2  
                    GetTxFifoStatus@validChannel 0501                          ??_OSCILLATOR_Initialize 0560  
                           __end_of_CAN1_RXI_ISR 471C                        __size_of_CAN1_ReceiveFrom 005A  
                               ?_GetTxFifoStatus 0501                         WriteMessageToFifo@status 0513  
                                       __pivt0x8 0008                                         __ptext10 4668  
                                       __ptext11 4792                                         __ptext20 46F0  
                                       __ptext12 4696                                         __ptext21 3C9A  
                                       __ptext13 4850                                         __ptext30 4492  
                                       __ptext22 4744                                         __ptext14 41A2  
                                       __ptext31 3FEC                                         __ptext23 423A  
                                       __ptext15 485E                                         __ptext32 3A5A  
                                       __ptext24 462A                                         __ptext16 46C4  
                                       __ptext33 44EC                                         __ptext25 3814  
                                       __ptext17 4360                                         __ptext34 4808  
                                       __ptext26 3EC6                                         __ptext18 45E8  
                                       __ptext35 47B8                                         __ptext27 4868  
                                       __ptext19 43D6                                         __ptext36 0000  
                                       __ptext28 47F0                                         __ptext29 40D8  
                    CAN1_OperationModeSet@opMode 0560                        ReadMessageFromFifo@status 0517  
                    CAN1_OperationModeSet@status 0561                                    __size_of_main 000E  
             __end_of_INTERRUPT_InterruptManager 43D6                       _INTERRUPT_InterruptManager 4360  
                      __size_of_TU16A_Initialize 004E                       ValidateTransmission@plsize 0509  
                         ??_ValidateTransmission 0504                                         memcpy@d1 0501  
                                       memcpy@s1 0503                           ??_INTERRUPT_Initialize 0560  
                                       intlevel2 0000                          ?_PIN_MANAGER_Initialize 0501  
                    ?_CAN1_RX_FIFO_Configuration 0501               __size_of_CAN1_BitRateConfiguration 002C  
                 ??_CAN1_SetFIFO1NotEmptyHandler 0563                           ?_CAN1_OperationModeGet 0501  
                     ?_CAN1_BitRateConfiguration 0501                           ?_CAN1_OperationModeSet 0501  
                    ReadMessageFromFifo@rxCanMsg 050E                         CAN1_Transmit@fifoChannel 051D  
          CAN1_ReceivedMessageCountGet@fifoDepth 0507                                  _C1FIFOSTA1Lbits 000160  
                 __end_of_PIN_MANAGER_Initialize 4360                   fp__DefaultFIFO1NotEmptyHandler 0000  
                        CAN1_ReceiveFrom@channel 0526                          i2_CAN1_OperationModeGet 4868  
                          __size_of_CAN1_RXI_ISR 002C                         CAN1_ReceiveFrom@rxCanMsg 0522  
                          CAN1_ReceiveFrom@index 0527                __end_of_CAN1_BitRateConfiguration 46F0  
     TU16A_DefaultInterruptHandler@Transmit_Data 051F  
